(lp0
c__builtin__
set
p1
((lp2
tp3
Rp4
ag1
((lp5
tp6
Rp7
ag1
((lp8
tp9
Rp10
ag1
((lp11
tp12
Rp13
ag1
((lp14
tp15
Rp16
ag1
((lp17
tp18
Rp19
ag1
((lp20
tp21
Rp22
ag1
((lp23
tp24
Rp25
ag1
((lp26
tp27
Rp28
ag1
((lp29
tp30
Rp31
ag1
((lp32
tp33
Rp34
ag1
((lp35
tp36
Rp37
ag1
((lp38
tp39
Rp40
ag1
((lp41
tp42
Rp43
ag1
((lp44
tp45
Rp46
ag1
((lp47
tp48
Rp49
ag1
((lp50
tp51
Rp52
ag1
((lp53
tp54
Rp55
ag1
((lp56
tp57
Rp58
ag1
((lp59
tp60
Rp61
ag1
((lp62
tp63
Rp64
ag1
((lp65
tp66
Rp67
ag1
((lp68
tp69
Rp70
ag1
((lp71
tp72
Rp73
ag1
((lp74
tp75
Rp76
ag1
((lp77
tp78
Rp79
ag1
((lp80
tp81
Rp82
ag1
((lp83
tp84
Rp85
ag1
((lp86
tp87
Rp88
ag1
((lp89
tp90
Rp91
ag1
((lp92
tp93
Rp94
ag1
((lp95
tp96
Rp97
ag1
((lp98
tp99
Rp100
ag1
((lp101
tp102
Rp103
ag1
((lp104
tp105
Rp106
ag1
((lp107
tp108
Rp109
ag1
((lp110
tp111
Rp112
ag1
((lp113
tp114
Rp115
ag1
((lp116
tp117
Rp118
ag1
((lp119
tp120
Rp121
ag1
((lp122
tp123
Rp124
ag1
((lp125
tp126
Rp127
ag1
((lp128
tp129
Rp130
ag1
((lp131
tp132
Rp133
ag1
((lp134
tp135
Rp136
ag1
((lp137
tp138
Rp139
ag1
((lp140
tp141
Rp142
ag1
((lp143
tp144
Rp145
ag1
((lp146
tp147
Rp148
ag1
((lp149
tp150
Rp151
ag1
((lp152
tp153
Rp154
ag1
((lp155
tp156
Rp157
ag1
((lp158
tp159
Rp160
ag1
((lp161
tp162
Rp163
ag1
((lp164
tp165
Rp166
ag1
((lp167
tp168
Rp169
ag1
((lp170
tp171
Rp172
ag1
((lp173
tp174
Rp175
ag1
((lp176
tp177
Rp178
ag1
((lp179
tp180
Rp181
ag1
((lp182
tp183
Rp184
ag1
((lp185
tp186
Rp187
ag1
((lp188
tp189
Rp190
ag1
((lp191
tp192
Rp193
ag1
((lp194
tp195
Rp196
ag1
((lp197
tp198
Rp199
ag1
((lp200
tp201
Rp202
ag1
((lp203
S'21638104'
p204
atp205
Rp206
ag1
((lp207
tp208
Rp209
ag1
((lp210
tp211
Rp212
ag1
((lp213
tp214
Rp215
ag1
((lp216
tp217
Rp218
ag1
((lp219
tp220
Rp221
ag1
((lp222
tp223
Rp224
ag1
((lp225
tp226
Rp227
ag1
((lp228
tp229
Rp230
ag1
((lp231
tp232
Rp233
ag1
((lp234
tp235
Rp236
ag1
((lp237
tp238
Rp239
ag1
((lp240
tp241
Rp242
ag1
((lp243
tp244
Rp245
ag1
((lp246
tp247
Rp248
ag1
((lp249
tp250
Rp251
ag1
((lp252
tp253
Rp254
ag1
((lp255
tp256
Rp257
ag1
((lp258
tp259
Rp260
ag1
((lp261
tp262
Rp263
ag1
((lp264
tp265
Rp266
ag1
((lp267
tp268
Rp269
ag1
((lp270
tp271
Rp272
ag1
((lp273
tp274
Rp275
ag1
((lp276
tp277
Rp278
ag1
((lp279
tp280
Rp281
ag1
((lp282
tp283
Rp284
ag1
((lp285
tp286
Rp287
ag1
((lp288
tp289
Rp290
ag1
((lp291
tp292
Rp293
ag1
((lp294
tp295
Rp296
ag1
((lp297
tp298
Rp299
ag1
((lp300
tp301
Rp302
ag1
((lp303
tp304
Rp305
ag1
((lp306
tp307
Rp308
ag1
((lp309
tp310
Rp311
ag1
((lp312
tp313
Rp314
ag1
((lp315
tp316
Rp317
ag1
((lp318
tp319
Rp320
ag1
((lp321
tp322
Rp323
ag1
((lp324
tp325
Rp326
ag1
((lp327
tp328
Rp329
ag1
((lp330
tp331
Rp332
ag1
((lp333
tp334
Rp335
ag1
((lp336
tp337
Rp338
ag1
((lp339
tp340
Rp341
ag1
((lp342
tp343
Rp344
ag1
((lp345
tp346
Rp347
ag1
((lp348
tp349
Rp350
ag1
((lp351
tp352
Rp353
ag1
((lp354
tp355
Rp356
ag1
((lp357
tp358
Rp359
ag1
((lp360
tp361
Rp362
ag1
((lp363
tp364
Rp365
ag1
((lp366
tp367
Rp368
ag1
((lp369
tp370
Rp371
ag1
((lp372
tp373
Rp374
ag1
((lp375
tp376
Rp377
ag1
((lp378
tp379
Rp380
ag1
((lp381
tp382
Rp383
ag1
((lp384
tp385
Rp386
ag1
((lp387
tp388
Rp389
ag1
((lp390
tp391
Rp392
ag1
((lp393
tp394
Rp395
ag1
((lp396
tp397
Rp398
ag1
((lp399
tp400
Rp401
ag1
((lp402
tp403
Rp404
ag1
((lp405
tp406
Rp407
ag1
((lp408
tp409
Rp410
ag1
((lp411
tp412
Rp413
ag1
((lp414
tp415
Rp416
ag1
((lp417
tp418
Rp419
ag1
((lp420
tp421
Rp422
ag1
((lp423
tp424
Rp425
ag1
((lp426
tp427
Rp428
ag1
((lp429
tp430
Rp431
ag1
((lp432
tp433
Rp434
ag1
((lp435
tp436
Rp437
ag1
((lp438
tp439
Rp440
ag1
((lp441
tp442
Rp443
ag1
((lp444
tp445
Rp446
ag1
((lp447
tp448
Rp449
ag1
((lp450
tp451
Rp452
ag1
((lp453
tp454
Rp455
ag1
((lp456
tp457
Rp458
ag1
((lp459
tp460
Rp461
ag1
((lp462
tp463
Rp464
ag1
((lp465
tp466
Rp467
ag1
((lp468
tp469
Rp470
ag1
((lp471
tp472
Rp473
ag1
((lp474
tp475
Rp476
ag1
((lp477
tp478
Rp479
ag1
((lp480
tp481
Rp482
ag1
((lp483
tp484
Rp485
ag1
((lp486
tp487
Rp488
ag1
((lp489
tp490
Rp491
ag1
((lp492
tp493
Rp494
ag1
((lp495
tp496
Rp497
ag1
((lp498
tp499
Rp500
ag1
((lp501
tp502
Rp503
ag1
((lp504
tp505
Rp506
ag1
((lp507
tp508
Rp509
ag1
((lp510
tp511
Rp512
ag1
((lp513
tp514
Rp515
ag1
((lp516
tp517
Rp518
ag1
((lp519
tp520
Rp521
ag1
((lp522
tp523
Rp524
ag1
((lp525
tp526
Rp527
ag1
((lp528
tp529
Rp530
ag1
((lp531
tp532
Rp533
ag1
((lp534
tp535
Rp536
ag1
((lp537
tp538
Rp539
ag1
((lp540
tp541
Rp542
ag1
((lp543
tp544
Rp545
ag1
((lp546
tp547
Rp548
ag1
((lp549
tp550
Rp551
ag1
((lp552
tp553
Rp554
ag1
((lp555
tp556
Rp557
ag1
((lp558
tp559
Rp560
ag1
((lp561
tp562
Rp563
ag1
((lp564
tp565
Rp566
ag1
((lp567
tp568
Rp569
ag1
((lp570
tp571
Rp572
ag1
((lp573
tp574
Rp575
ag1
((lp576
tp577
Rp578
ag1
((lp579
tp580
Rp581
ag1
((lp582
tp583
Rp584
ag1
((lp585
tp586
Rp587
ag1
((lp588
tp589
Rp590
ag1
((lp591
tp592
Rp593
ag1
((lp594
tp595
Rp596
ag1
((lp597
tp598
Rp599
ag1
((lp600
tp601
Rp602
ag1
((lp603
tp604
Rp605
ag1
((lp606
tp607
Rp608
ag1
((lp609
tp610
Rp611
ag1
((lp612
tp613
Rp614
ag1
((lp615
tp616
Rp617
ag1
((lp618
tp619
Rp620
ag1
((lp621
tp622
Rp623
ag1
((lp624
tp625
Rp626
ag1
((lp627
tp628
Rp629
ag1
((lp630
tp631
Rp632
ag1
((lp633
tp634
Rp635
ag1
((lp636
tp637
Rp638
ag1
((lp639
tp640
Rp641
ag1
((lp642
tp643
Rp644
ag1
((lp645
tp646
Rp647
ag1
((lp648
tp649
Rp650
ag1
((lp651
tp652
Rp653
ag1
((lp654
tp655
Rp656
ag1
((lp657
tp658
Rp659
ag1
((lp660
tp661
Rp662
ag1
((lp663
tp664
Rp665
ag1
((lp666
tp667
Rp668
ag1
((lp669
tp670
Rp671
ag1
((lp672
tp673
Rp674
ag1
((lp675
tp676
Rp677
ag1
((lp678
tp679
Rp680
ag1
((lp681
tp682
Rp683
ag1
((lp684
tp685
Rp686
ag1
((lp687
tp688
Rp689
ag1
((lp690
tp691
Rp692
ag1
((lp693
tp694
Rp695
ag1
((lp696
tp697
Rp698
ag1
((lp699
tp700
Rp701
ag1
((lp702
tp703
Rp704
ag1
((lp705
tp706
Rp707
ag1
((lp708
tp709
Rp710
ag1
((lp711
tp712
Rp713
ag1
((lp714
tp715
Rp716
ag1
((lp717
tp718
Rp719
ag1
((lp720
tp721
Rp722
ag1
((lp723
tp724
Rp725
ag1
((lp726
tp727
Rp728
ag1
((lp729
tp730
Rp731
ag1
((lp732
tp733
Rp734
ag1
((lp735
tp736
Rp737
ag1
((lp738
tp739
Rp740
ag1
((lp741
tp742
Rp743
ag1
((lp744
tp745
Rp746
ag1
((lp747
tp748
Rp749
ag1
((lp750
tp751
Rp752
ag1
((lp753
tp754
Rp755
ag1
((lp756
S'20959630'
p757
aS'22350846'
p758
aS'22661444'
p759
aS'21761475'
p760
aS'22474652'
p761
aS'22474653'
p762
aS'21949803'
p763
aS'21276941'
p764
aS'22411736'
p765
atp766
Rp767
ag1
((lp768
tp769
Rp770
ag1
((lp771
tp772
Rp773
ag1
((lp774
tp775
Rp776
ag1
((lp777
S'19427247'
p778
aS'20881138'
p779
aS'21276941'
p780
aS'22339734'
p781
aS'21179478'
p782
aS'22570595'
p783
aS'23250205'
p784
atp785
Rp786
ag1
((lp787
S'12826276'
p788
atp789
Rp790
ag1
((lp791
S'20959630'
p792
aS'19823012'
p793
aS'22550289'
p794
aS'21123419'
p795
aS'21179424'
p796
aS'23346115'
p797
atp798
Rp799
ag1
((lp800
tp801
Rp802
ag1
((lp803
tp804
Rp805
ag1
((lp806
tp807
Rp808
ag1
((lp809
S'12826276'
p810
aS'15245876'
p811
aS'17928523'
p812
aS'21927981'
p813
aS'16269351'
p814
aS'11971809'
p815
aS'14698841'
p816
atp817
Rp818
ag1
((lp819
tp820
Rp821
ag1
((lp822
tp823
Rp824
ag1
((lp825
S'19895559'
p826
aS'21104111'
p827
atp828
Rp829
ag1
((lp830
S'23232333'
p831
atp832
Rp833
ag1
((lp834
tp835
Rp836
ag1
((lp837
tp838
Rp839
ag1
((lp840
S'21723860'
p841
aS'15366014'
p842
aS'16929525'
p843
atp844
Rp845
ag1
((lp846
tp847
Rp848
ag1
((lp849
S'12826276'
p850
aS'15248318'
p851
aS'21927981'
p852
atp853
Rp854
ag1
((lp855
S'21282659'
p856
aS'21984413'
p857
aS'19901069'
p858
aS'17679088'
p859
aS'14560028'
p860
aS'20083442'
p861
aS'21347277'
p862
aS'17569619'
p863
aS'21437275'
p864
aS'17383831'
p865
aS'19306277'
p866
aS'15483399'
p867
aS'15260979'
p868
atp869
Rp870
ag1
((lp871
S'23157399'
p872
atp873
Rp874
ag1
((lp875
S'12106879'
p876
aS'22808160'
p877
aS'12414756'
p878
atp879
Rp880
ag1
((lp881
tp882
Rp883
ag1
((lp884
tp885
Rp886
ag1
((lp887
tp888
Rp889
ag1
((lp890
tp891
Rp892
ag1
((lp893
tp894
Rp895
ag1
((lp896
tp897
Rp898
ag1
((lp899
tp900
Rp901
ag1
((lp902
S'16650460'
p903
aS'20881138'
p904
aS'22802643'
p905
aS'17226775'
p906
aS'22022609'
p907
aS'21599922'
p908
aS'22899856'
p909
aS'20959630'
p910
aS'19401828'
p911
aS'23354119'
p912
aS'22339734'
p913
aS'22159581'
p914
aS'11807809'
p915
aS'23250205'
p916
atp917
Rp918
ag1
((lp919
S'22542702'
p920
aS'19823012'
p921
aS'21123419'
p922
aS'22933452'
p923
aS'22570595'
p924
aS'20643119'
p925
aS'22899856'
p926
aS'21826245'
p927
aS'23251546'
p928
aS'19406249'
p929
aS'20215347'
p930
aS'22550289'
p931
aS'20959630'
p932
aS'22661444'
p933
aS'21276941'
p934
aS'23354119'
p935
aS'19562527'
p936
aS'23196890'
p937
aS'20708956'
p938
aS'22350846'
p939
aS'22802643'
p940
aS'23346115'
p941
aS'22022609'
p942
aS'19141667'
p943
aS'19084609'
p944
aS'22339734'
p945
aS'22411736'
p946
aS'22086838'
p947
aS'23250205'
p948
aS'21179424'
p949
aS'20881138'
p950
aS'22237730'
p951
aS'21599922'
p952
aS'22474652'
p953
aS'22474653'
p954
aS'22474651'
p955
aS'21949803'
p956
aS'21031419'
p957
aS'22809139'
p958
aS'19011685'
p959
aS'20026026'
p960
aS'22159581'
p961
atp962
Rp963
ag1
((lp964
S'21676701'
p965
aS'21920290'
p966
aS'20579038'
p967
aS'21061996'
p968
aS'15306338'
p969
aS'18429767'
p970
aS'21108637'
p971
aS'17926292'
p972
aS'17348952'
p973
aS'18479701'
p974
aS'17877452'
p975
atp976
Rp977
ag1
((lp978
tp979
Rp980
ag1
((lp981
tp982
Rp983
ag1
((lp984
tp985
Rp986
ag1
((lp987
tp988
Rp989
ag1
((lp990
S'19823012'
p991
aS'18288322'
p992
aS'16289076'
p993
aS'18069689'
p994
aS'20809547'
p995
aS'21174958'
p996
aS'19580804'
p997
aS'23233460'
p998
atp999
Rp1000
ag1
((lp1001
S'20143343'
p1002
aS'23316441'
p1003
aS'22532806'
p1004
aS'20617203'
p1005
aS'20225150'
p1006
aS'19687136'
p1007
aS'18809224'
p1008
aS'20081362'
p1009
aS'20460465'
p1010
atp1011
Rp1012
ag1
((lp1013
tp1014
Rp1015
ag1
((lp1016
tp1017
Rp1018
ag1
((lp1019
S'18769503'
p1020
aS'23275544'
p1021
aS'23142667'
p1022
aS'21040891'
p1023
aS'17981612'
p1024
aS'22783898'
p1025
aS'17581576'
p1026
aS'19595718'
p1027
aS'19136957'
p1028
aS'18632578'
p1029
aS'17347517'
p1030
aS'21282659'
p1031
aS'21984413'
p1032
aS'19306277'
p1033
atp1034
Rp1035
ag1
((lp1036
S'21276941'
p1037
aS'23250205'
p1038
aS'20026026'
p1039
aS'22339734'
p1040
atp1041
Rp1042
ag1
((lp1043
tp1044
Rp1045
ag1
((lp1046
S'21431939'
p1047
aS'12756526'
p1048
aS'15983007'
p1049
aS'22161151'
p1050
aS'21659219'
p1051
aS'17938112'
p1052
aS'17131187'
p1053
aS'21653348'
p1054
aS'15948830'
p1055
aS'16195841'
p1056
aS'22311255'
p1057
aS'22034482'
p1058
aS'19737084'
p1059
aS'20723074'
p1060
aS'21669736'
p1061
aS'20012101'
p1062
atp1063
Rp1064
ag1
((lp1065
S'22046455'
p1066
aS'22159581'
p1067
aS'23346115'
p1068
atp1069
Rp1070
ag1
((lp1071
tp1072
Rp1073
ag1
((lp1074
tp1075
Rp1076
ag1
((lp1077
tp1078
Rp1079
ag1
((lp1080
S'21672745'
p1081
aS'11971809'
p1082
aS'17928523'
p1083
aS'17438207'
p1084
atp1085
Rp1086
ag1
((lp1087
tp1088
Rp1089
ag1
((lp1090
tp1091
Rp1092
ag1
((lp1093
S'19198956'
p1094
aS'22159812'
p1095
aS'18036526'
p1096
aS'12568794'
p1097
aS'18288322'
p1098
aS'16689960'
p1099
aS'19360470'
p1100
aS'21464924'
p1101
aS'18476749'
p1102
aS'15664315'
p1103
aS'18804171'
p1104
atp1105
Rp1106
ag1
((lp1107
S'17681504'
p1108
aS'19699812'
p1109
aS'12568794'
p1110
aS'19026651'
p1111
aS'18094060'
p1112
aS'19115847'
p1113
aS'16125989'
p1114
aS'18476749'
p1115
aS'15664315'
p1116
aS'18032078'
p1117
aS'23232333'
p1118
aS'20504812'
p1119
aS'16620813'
p1120
aS'15886358'
p1121
aS'21723407'
p1122
aS'12270784'
p1123
aS'16774754'
p1124
aS'19360470'
p1125
aS'15849703'
p1126
aS'19470371'
p1127
aS'18036526'
p1128
aS'23277223'
p1129
aS'19371744'
p1130
aS'14609544'
p1131
aS'19324794'
p1132
aS'16029876'
p1133
aS'18537472'
p1134
aS'16927240'
p1135
aS'22159812'
p1136
aS'19642947'
p1137
aS'16828761'
p1138
aS'12928007'
p1139
aS'15708756'
p1140
aS'16701264'
p1141
aS'17363309'
p1142
aS'19523375'
p1143
aS'22101208'
p1144
aS'16263124'
p1145
aS'21801846'
p1146
aS'18554600'
p1147
aS'18804171'
p1148
atp1149
Rp1150
ag1
((lp1151
tp1152
Rp1153
ag1
((lp1154
tp1155
Rp1156
ag1
((lp1157
S'23227269'
p1158
aS'22076974'
p1159
atp1160
Rp1161
ag1
((lp1162
tp1163
Rp1164
ag1
((lp1165
tp1166
Rp1167
ag1
((lp1168
S'18761014'
p1169
aS'18941732'
p1170
aS'18793100'
p1171
aS'22233933'
p1172
aS'15146268'
p1173
aS'17148166'
p1174
aS'21464924'
p1175
aS'17689877'
p1176
aS'22649990'
p1177
atp1178
Rp1179
ag1
((lp1180
S'21521905'
p1181
aS'15277559'
p1182
aS'20804220'
p1183
aS'20543129'
p1184
aS'17609178'
p1185
aS'22355379'
p1186
aS'12423252'
p1187
aS'19014955'
p1188
aS'15777013'
p1189
aS'18310113'
p1190
aS'16786430'
p1191
aS'17438205'
p1192
aS'19411539'
p1193
aS'20228350'
p1194
aS'20655223'
p1195
aS'23325858'
p1196
aS'12886515'
p1197
aS'21167202'
p1198
aS'21160115'
p1199
aS'19282499'
p1200
aS'21389205'
p1201
aS'20414659'
p1202
aS'21057644'
p1203
aS'14609637'
p1204
aS'22776687'
p1205
atp1206
Rp1207
ag1
((lp1208
S'22933452'
p1209
aS'20881138'
p1210
aS'22022609'
p1211
aS'22339734'
p1212
atp1213
Rp1214
ag1
((lp1215
tp1216
Rp1217
ag1
((lp1218
tp1219
Rp1220
ag1
((lp1221
S'21123419'
p1222
aS'18938238'
p1223
aS'17023525'
p1224
aS'22899856'
p1225
aS'21826245'
p1226
aS'19084609'
p1227
aS'23251546'
p1228
aS'22411736'
p1229
aS'17450229'
p1230
aS'20215347'
p1231
aS'22086838'
p1232
aS'16675520'
p1233
aS'23346115'
p1234
aS'17825522'
p1235
aS'22267036'
p1236
aS'18226065'
p1237
aS'21343266'
p1238
aS'17010603'
p1239
aS'23348055'
p1240
aS'21761475'
p1241
aS'22419778'
p1242
aS'20338858'
p1243
aS'21031419'
p1244
aS'20444668'
p1245
aS'23354119'
p1246
aS'19074586'
p1247
aS'22099174'
p1248
atp1249
Rp1250
ag1
((lp1251
tp1252
Rp1253
ag1
((lp1254
tp1255
Rp1256
ag1
((lp1257
S'18761014'
p1258
aS'17689877'
p1259
aS'22233933'
p1260
aS'18793100'
p1261
atp1262
Rp1263
ag1
((lp1264
S'22355379'
p1265
aS'20695812'
p1266
aS'17926292'
p1267
aS'20655223'
p1268
aS'18310113'
p1269
aS'18941732'
p1270
aS'17609178'
p1271
atp1272
Rp1273
ag1
((lp1274
tp1275
Rp1276
ag1
((lp1277
tp1278
Rp1279
ag1
((lp1280
S'15174107'
p1281
aS'18386843'
p1282
aS'16893566'
p1283
aS'17276428'
p1284
atp1285
Rp1286
ag1
((lp1287
tp1288
Rp1289
ag1
((lp1290
S'18380592'
p1291
aS'16411835'
p1292
aS'17518658'
p1293
aS'11772952'
p1294
aS'12895580'
p1295
aS'16019414'
p1296
aS'17064118'
p1297
aS'15621227'
p1298
aS'12423595'
p1299
aS'12596643'
p1300
aS'16182301'
p1301
aS'12182315'
p1302
aS'15607889'
p1303
aS'17518624'
p1304
aS'14566798'
p1305
aS'15534553'
p1306
aS'14615169'
p1307
atp1308
Rp1309
ag1
((lp1310
S'23088839'
p1311
atp1312
Rp1313
ag1
((lp1314
S'20027303'
p1315
aS'21895494'
p1316
atp1317
Rp1318
ag1
((lp1319
tp1320
Rp1321
ag1
((lp1322
tp1323
Rp1324
ag1
((lp1325
tp1326
Rp1327
ag1
((lp1328
S'22806499'
p1329
aS'23088839'
p1330
atp1331
Rp1332
ag1
((lp1333
S'23271162'
p1334
atp1335
Rp1336
ag1
((lp1337
S'22824008'
p1338
atp1339
Rp1340
ag1
((lp1341
tp1342
Rp1343
ag1
((lp1344
tp1345
Rp1346
ag1
((lp1347
tp1348
Rp1349
ag1
((lp1350
tp1351
Rp1352
ag1
((lp1353
S'12683762'
p1354
aS'18370418'
p1355
aS'15455775'
p1356
aS'17477682'
p1357
aS'21269490'
p1358
atp1359
Rp1360
ag1
((lp1361
S'18528437'
p1362
aS'23088839'
p1363
aS'22940218'
p1364
aS'22207358'
p1365
atp1366
Rp1367
ag1
((lp1368
tp1369
Rp1370
ag1
((lp1371
tp1372
Rp1373
ag1
((lp1374
S'17994871'
p1375
aS'21971964'
p1376
aS'21386853'
p1377
aS'12375832'
p1378
aS'16912737'
p1379
aS'16965171'
p1380
aS'22399834'
p1381
aS'12880359'
p1382
aS'16912738'
p1383
aS'16945553'
p1384
aS'19895129'
p1385
aS'19340113'
p1386
aS'12099589'
p1387
aS'19340125'
p1388
aS'14625058'
p1389
aS'16292959'
p1390
aS'16173819'
p1391
aS'12790458'
p1392
aS'22820416'
p1393
aS'23150544'
p1394
aS'11744680'
p1395
aS'21915189'
p1396
aS'23224167'
p1397
aS'20596162'
p1398
aS'17405365'
p1399
aS'15751885'
p1400
aS'15568935'
p1401
aS'15357206'
p1402
aS'15128197'
p1403
aS'21791406'
p1404
atp1405
Rp1406
ag1
((lp1407
S'18291520'
p1408
atp1409
Rp1410
ag1
((lp1411
S'21456879'
p1412
aS'21638765'
p1413
aS'21695778'
p1414
aS'23188308'
p1415
aS'18291520'
p1416
aS'21744493'
p1417
aS'17212535'
p1418
aS'17477705'
p1419
aS'18163799'
p1420
aS'19340123'
p1421
aS'17477447'
p1422
aS'17935126'
p1423
aS'20865693'
p1424
aS'21269490'
p1425
aS'22551485'
p1426
aS'22607264'
p1427
aS'18026288'
p1428
aS'19412220'
p1429
aS'20419124'
p1430
aS'18313137'
p1431
aS'18370418'
p1432
aS'21931846'
p1433
aS'22560200'
p1434
aS'18844604'
p1435
aS'17477682'
p1436
aS'20817293'
p1437
aS'16419185'
p1438
atp1439
Rp1440
ag1
((lp1441
tp1442
Rp1443
ag1
((lp1444
S'21793193'
p1445
aS'20804220'
p1446
aS'23036961'
p1447
aS'20801503'
p1448
aS'19216528'
p1449
aS'20301120'
p1450
aS'23161731'
p1451
aS'21425769'
p1452
aS'20926132'
p1453
aS'23070941'
p1454
aS'23184644'
p1455
aS'21682541'
p1456
aS'23008168'
p1457
aS'22311816'
p1458
aS'22552231'
p1459
aS'21872326'
p1460
aS'21919790'
p1461
aS'20656075'
p1462
aS'20546890'
p1463
aS'21736446'
p1464
atp1465
Rp1466
ag1
((lp1467
tp1468
Rp1469
ag1
((lp1470
tp1471
Rp1472
ag1
((lp1473
tp1474
Rp1475
ag1
((lp1476
S'22893127'
p1477
aS'19924684'
p1478
aS'21695778'
p1479
aS'20674969'
p1480
aS'21963157'
p1481
aS'22148515'
p1482
aS'17583788'
p1483
aS'21425769'
p1484
aS'21689795'
p1485
aS'20217856'
p1486
aS'17628161'
p1487
aS'20858000'
p1488
aS'19323497'
p1489
aS'22778443'
p1490
aS'19874919'
p1491
aS'22079005'
p1492
aS'23349062'
p1493
aS'20942397'
p1494
aS'21872326'
p1495
aS'19928816'
p1496
aS'19945157'
p1497
aS'21955178'
p1498
atp1499
Rp1500
ag1
((lp1501
S'21456879'
p1502
aS'17935126'
p1503
aS'19412220'
p1504
aS'21638765'
p1505
aS'18313137'
p1506
aS'18026288'
p1507
aS'23188308'
p1508
aS'21744493'
p1509
aS'18291520'
p1510
aS'19340123'
p1511
atp1512
Rp1513
ag1
((lp1514
tp1515
Rp1516
ag1
((lp1517
S'23150544'
p1518
atp1519
Rp1520
ag1
((lp1521
S'21793193'
p1522
aS'12384311'
p1523
aS'20196618'
p1524
aS'23036961'
p1525
aS'21453189'
p1526
aS'15701373'
p1527
aS'16494940'
p1528
aS'22148515'
p1529
aS'15985292'
p1530
aS'23161731'
p1531
aS'20976116'
p1532
aS'23359587'
p1533
aS'20217856'
p1534
aS'20712340'
p1535
aS'21955178'
p1536
aS'23333441'
p1537
aS'16297486'
p1538
aS'21557390'
p1539
aS'21484985'
p1540
aS'21445939'
p1541
aS'18844604'
p1542
aS'20185172'
p1543
aS'15478212'
p1544
aS'20027303'
p1545
aS'21681949'
p1546
aS'20161439'
p1547
aS'21549864'
p1548
aS'22309836'
p1549
aS'20656075'
p1550
aS'22940218'
p1551
aS'16893566'
p1552
aS'19228444'
p1553
aS'15607889'
p1554
aS'20528664'
p1555
aS'12423595'
p1556
aS'15614556'
p1557
aS'15132651'
p1558
aS'18417206'
p1559
aS'20166810'
p1560
aS'14648755'
p1561
aS'11772952'
p1562
aS'18291520'
p1563
aS'17937982'
p1564
aS'18038391'
p1565
aS'17276428'
p1566
aS'12596643'
p1567
aS'16285808'
p1568
aS'14659737'
p1569
aS'20121593'
p1570
aS'16752403'
p1571
aS'19496677'
p1572
aS'19924684'
p1573
aS'20954203'
p1574
aS'21425769'
p1575
aS'21682541'
p1576
aS'22046979'
p1577
aS'21159629'
p1578
aS'18200055'
p1579
aS'14566798'
p1580
aS'21600981'
p1581
aS'19232717'
p1582
aS'20859936'
p1583
aS'19128057'
p1584
aS'17218036'
p1585
aS'22270942'
p1586
aS'21082412'
p1587
aS'18163799'
p1588
aS'17923416'
p1589
aS'18498187'
p1590
aS'12963711'
p1591
aS'20824692'
p1592
aS'22311816'
p1593
aS'12414756'
p1594
aS'19732950'
p1595
aS'20298729'
p1596
aS'21706609'
p1597
aS'20817293'
p1598
aS'22822409'
p1599
aS'20673134'
p1600
aS'20026216'
p1601
aS'22890517'
p1602
aS'19796726'
p1603
aS'19905955'
p1604
aS'16104752'
p1605
aS'12425660'
p1606
aS'18795287'
p1607
aS'21689795'
p1608
aS'23088839'
p1609
aS'17477447'
p1610
aS'21492931'
p1611
aS'17194509'
p1612
aS'23335872'
p1613
aS'20457191'
p1614
aS'20942397'
p1615
aS'11674146'
p1616
aS'17765303'
p1617
aS'18279952'
p1618
aS'22893127'
p1619
aS'12392764'
p1620
aS'20217775'
p1621
aS'21963157'
p1622
aS'19059642'
p1623
aS'15009933'
p1624
aS'21655093'
p1625
aS'17064118'
p1626
aS'21298345'
p1627
aS'19338449'
p1628
aS'21269490'
p1629
aS'19874919'
p1630
aS'12523841'
p1631
aS'12910549'
p1632
aS'17584985'
p1633
aS'20942485'
p1634
aS'15132662'
p1635
aS'16769898'
p1636
aS'21638342'
p1637
aS'19591236'
p1638
aS'21872326'
p1639
aS'17583788'
p1640
aS'12944968'
p1641
aS'22552231'
p1642
aS'19323497'
p1643
aS'17039548'
p1644
aS'20926132'
p1645
aS'18352829'
p1646
aS'20593549'
p1647
aS'17656569'
p1648
aS'23184824'
p1649
aS'21247356'
p1650
aS'19945157'
p1651
aS'20949478'
p1652
aS'20656868'
p1653
aS'21220960'
p1654
aS'18367277'
p1655
aS'16458961'
p1656
aS'18547107'
p1657
aS'19890885'
p1658
aS'16677707'
p1659
aS'20529238'
p1660
aS'19131689'
p1661
aS'17289141'
p1662
aS'21736446'
p1663
aS'19543442'
p1664
aS'19928816'
p1665
aS'18380592'
p1666
aS'23212989'
p1667
aS'20674969'
p1668
aS'21250666'
p1669
aS'11911773'
p1670
aS'15174107'
p1671
aS'20950854'
p1672
aS'16637042'
p1673
aS'21105641'
p1674
aS'20496408'
p1675
aS'21791406'
p1676
aS'16890988'
p1677
aS'20804220'
p1678
aS'21207952'
p1679
aS'18048096'
p1680
aS'16411835'
p1681
aS'19011685'
p1682
aS'22553118'
p1683
aS'19340123'
p1684
aS'23184644'
p1685
aS'20696419'
p1686
aS'22551485'
p1687
aS'22079005'
p1688
aS'23349062'
p1689
aS'19577803'
p1690
aS'22560200'
p1691
aS'21919792'
p1692
aS'21919790'
p1693
aS'20708956'
p1694
aS'20546890'
p1695
aS'20301120'
p1696
aS'11875422'
p1697
aS'18629803'
p1698
aS'21695778'
p1699
aS'21028849'
p1700
aS'23161763'
p1701
aS'12895580'
p1702
aS'16019414'
p1703
aS'21033288'
p1704
aS'22824008'
p1705
aS'14980418'
p1706
aS'18801570'
p1707
aS'18502501'
p1708
aS'22199459'
p1709
aS'15998219'
p1710
aS'20658533'
p1711
aS'21235251'
p1712
aS'19382119'
p1713
aS'22870197'
p1714
aS'15132652'
p1715
aS'15603812'
p1716
aS'15913765'
p1717
aS'20217686'
p1718
aS'21565399'
p1719
aS'23009836'
p1720
aS'15491802'
p1721
aS'20865693'
p1722
aS'17096543'
p1723
aS'23271162'
p1724
aS'20835885'
p1725
aS'19804736'
p1726
aS'23070941'
p1727
aS'20138938'
p1728
aS'17974972'
p1729
aS'15534553'
p1730
aS'20144013'
p1731
aS'22844266'
p1732
aS'18386843'
p1733
aS'15585282'
p1734
aS'22052706'
p1735
aS'17518658'
p1736
aS'23091539'
p1737
aS'17089791'
p1738
aS'19562527'
p1739
aS'18387349'
p1740
aS'20142112'
p1741
aS'15621227'
p1742
aS'22922025'
p1743
aS'17628161'
p1744
aS'22778443'
p1745
aS'19997366'
p1746
aS'21959241'
p1747
aS'23150544'
p1748
aS'17727944'
p1749
aS'20419124'
p1750
aS'18313137'
p1751
aS'17449706'
p1752
aS'21812591'
p1753
aS'14615169'
p1754
aS'23008168'
p1755
aS'21895494'
p1756
aS'20801503'
p1757
aS'22355379'
p1758
aS'12425675'
p1759
aS'19508851'
p1760
aS'15860204'
p1761
aS'23029565'
p1762
aS'20044136'
p1763
aS'20486787'
p1764
aS'19643154'
p1765
aS'17274664'
p1766
aS'20671180'
p1767
aS'22090427'
p1768
aS'18239917'
p1769
aS'18419943'
p1770
aS'16140599'
p1771
aS'19071168'
p1772
aS'22266768'
p1773
aS'18031805'
p1774
aS'20858000'
p1775
aS'21739966'
p1776
aS'23315887'
p1777
aS'18370418'
p1778
aS'19207036'
p1779
aS'16444737'
p1780
aS'12182315'
p1781
atp1782
Rp1783
ag1
((lp1784
tp1785
Rp1786
ag1
((lp1787
tp1788
Rp1789
ag1
((lp1790
tp1791
Rp1792
ag1
((lp1793
tp1794
Rp1795
ag1
((lp1796
tp1797
Rp1798
ag1
((lp1799
tp1800
Rp1801
ag1
((lp1802
S'21793193'
p1803
aS'21220960'
p1804
aS'20696419'
p1805
aS'18419943'
p1806
aS'18367277'
p1807
aS'19874919'
p1808
aS'20712340'
p1809
aS'19905955'
p1810
aS'18031805'
p1811
aS'20142112'
p1812
aS'22311816'
p1813
aS'21298345'
p1814
aS'20656075'
p1815
aS'18804171'
p1816
atp1817
Rp1818
ag1
((lp1819
tp1820
Rp1821
ag1
((lp1822
tp1823
Rp1824
ag1
((lp1825
S'21338517'
p1826
aS'22685574'
p1827
aS'18773462'
p1828
aS'23349062'
p1829
atp1830
Rp1831
ag1
((lp1832
S'18387349'
p1833
aS'16458961'
p1834
aS'15132662'
p1835
aS'17583788'
p1836
atp1837
Rp1838
ag1
((lp1839
tp1840
Rp1841
ag1
((lp1842
S'18801570'
p1843
aS'19496677'
p1844
aS'21220960'
p1845
aS'21959241'
p1846
aS'21895494'
p1847
aS'17727944'
p1848
aS'20528664'
p1849
aS'20027303'
p1850
atp1851
Rp1852
ag1
((lp1853
tp1854
Rp1855
ag1
((lp1856
tp1857
Rp1858
ag1
((lp1859
tp1860
Rp1861
ag1
((lp1862
S'18380592'
p1863
aS'17518658'
p1864
aS'16411835'
p1865
aS'15607889'
p1866
aS'17518624'
p1867
aS'17974972'
p1868
aS'17584985'
p1869
aS'12182315'
p1870
aS'15621227'
p1871
atp1872
Rp1873
ag1
((lp1874
S'19360894'
p1875
aS'20301120'
p1876
aS'22266768'
p1877
aS'21445939'
p1878
aS'21695778'
p1879
aS'20801503'
p1880
aS'20671180'
p1881
aS'19059642'
p1882
aS'21033288'
p1883
aS'22270942'
p1884
aS'21638342'
p1885
aS'20217686'
p1886
aS'22553118'
p1887
aS'20217856'
p1888
aS'19323497'
p1889
aS'22778443'
p1890
aS'19997366'
p1891
aS'23150544'
p1892
aS'21949803'
p1893
aS'18370418'
p1894
aS'20496408'
p1895
aS'17477682'
p1896
aS'20593549'
p1897
aS'20859936'
p1898
atp1899
Rp1900
ag1
((lp1901
tp1902
Rp1903
ag1
((lp1904
S'20027303'
p1905
aS'21895494'
p1906
atp1907
Rp1908
ag1
((lp1909
S'21681949'
p1910
aS'17274664'
p1911
aS'17937982'
p1912
aS'18547107'
p1913
aS'23161731'
p1914
aS'18795287'
p1915
aS'21655093'
p1916
aS'22552231'
p1917
aS'23184644'
p1918
aS'22778443'
p1919
aS'17194509'
p1920
aS'23150544'
p1921
aS'16297486'
p1922
aS'23315887'
p1923
aS'19228444'
p1924
aS'12414756'
p1925
aS'12895580'
p1926
aS'15614556'
p1927
atp1928
Rp1929
ag1
((lp1930
tp1931
Rp1932
ag1
((lp1933
S'20976116'
p1934
aS'20817293'
p1935
aS'16769898'
p1936
atp1937
Rp1938
ag1
((lp1939
S'21959241'
p1940
aS'23333441'
p1941
atp1942
Rp1943
ag1
((lp1944
S'22893127'
p1945
aS'21963157'
p1946
aS'21955178'
p1947
aS'19928816'
p1948
aS'23088839'
p1949
atp1950
Rp1951
ag1
((lp1952
S'23188308'
p1953
aS'22560200'
p1954
aS'22607264'
p1955
atp1956
Rp1957
ag1
((lp1958
S'22822409'
p1959
atp1960
Rp1961
ag1
((lp1962
tp1963
Rp1964
ag1
((lp1965
tp1966
Rp1967
ag1
((lp1968
S'20674969'
p1969
atp1970
Rp1971
ag1
((lp1972
S'21600981'
p1973
atp1974
Rp1975
ag1
((lp1976
tp1977
Rp1978
ag1
((lp1979
S'17994871'
p1980
aS'21971964'
p1981
aS'21386853'
p1982
aS'16912737'
p1983
aS'16965171'
p1984
aS'22399834'
p1985
aS'16912738'
p1986
aS'16945553'
p1987
aS'19895129'
p1988
aS'19340113'
p1989
aS'19340125'
p1990
aS'23201658'
p1991
aS'22820416'
p1992
aS'21633460'
p1993
aS'16173819'
p1994
aS'23150544'
p1995
aS'21915189'
p1996
aS'23224167'
p1997
aS'20596162'
p1998
aS'16292959'
p1999
aS'15751885'
p2000
aS'15357206'
p2001
aS'15128197'
p2002
atp2003
Rp2004
ag1
((lp2005
tp2006
Rp2007
ag1
((lp2008
S'22922025'
p2009
aS'22870197'
p2010
aS'22079005'
p2011
aS'23091539'
p2012
atp2013
Rp2014
ag1
((lp2015
tp2016
Rp2017
ag1
((lp2018
S'19562527'
p2019
aS'19508851'
p2020
aS'19011685'
p2021
atp2022
Rp2023
ag1
((lp2024
tp2025
Rp2026
ag1
((lp2027
S'21445939'
p2028
aS'23150544'
p2029
aS'21638342'
p2030
aS'22553118'
p2031
aS'22266768'
p2032
atp2033
Rp2034
ag1
((lp2035
tp2036
Rp2037
ag1
((lp2038
tp2039
Rp2040
ag1
((lp2041
tp2042
Rp2043
ag1
((lp2044
S'22148515'
p2045
atp2046
Rp2047
ag1
((lp2048
S'19945157'
p2049
aS'19323497'
p2050
aS'20217856'
p2051
aS'21959241'
p2052
aS'19874919'
p2053
aS'19071168'
p2054
aS'18031805'
p2055
aS'20942397'
p2056
aS'17218036'
p2057
aS'17583788'
p2058
aS'20824692'
p2059
aS'19232717'
p2060
atp2061
Rp2062
ag1
((lp2063
S'16520168'
p2064
atp2065
Rp2066
ag1
((lp2067
S'23009836'
p2068
atp2069
Rp2070
ag1
((lp2071
tp2072
Rp2073
ag1
((lp2074
S'22101489'
p2075
aS'22174186'
p2076
aS'22148515'
p2077
aS'23233344'
p2078
aS'21955178'
p2079
aS'22239736'
p2080
atp2081
Rp2082
ag1
((lp2083
tp2084
Rp2085
ag1
((lp2086
S'20026216'
p2087
aS'23335872'
p2088
aS'21959241'
p2089
aS'19945157'
p2090
aS'19804736'
p2091
aS'20217775'
p2092
atp2093
Rp2094
ag1
((lp2095
tp2096
Rp2097
ag1
((lp2098
tp2099
Rp2100
ag1
((lp2101
tp2102
Rp2103
ag1
((lp2104
tp2105
Rp2106
ag1
((lp2107
tp2108
Rp2109
ag1
((lp2110
tp2111
Rp2112
ag1
((lp2113
tp2114
Rp2115
ag1
((lp2116
tp2117
Rp2118
ag1
((lp2119
tp2120
Rp2121
ag1
((lp2122
tp2123
Rp2124
ag1
((lp2125
tp2126
Rp2127
ag1
((lp2128
tp2129
Rp2130
ag1
((lp2131
tp2132
Rp2133
ag1
((lp2134
tp2135
Rp2136
ag1
((lp2137
S'16763145'
p2138
aS'22403387'
p2139
aS'20929844'
p2140
aS'16518784'
p2141
aS'21240451'
p2142
aS'22559871'
p2143
aS'22498919'
p2144
aS'18327859'
p2145
aS'12843399'
p2146
atp2147
Rp2148
ag1
((lp2149
tp2150
Rp2151
ag1
((lp2152
tp2153
Rp2154
ag1
((lp2155
tp2156
Rp2157
ag1
((lp2158
tp2159
Rp2160
ag1
((lp2161
S'22730384'
p2162
atp2163
Rp2164
ag1
((lp2165
S'20656868'
p2166
aS'20166810'
p2167
aS'17284573'
p2168
aS'18767968'
p2169
aS'23270532'
p2170
aS'16289779'
p2171
aS'19496677'
p2172
aS'17202129'
p2173
aS'17990492'
p2174
aS'21655093'
p2175
aS'22102800'
p2176
aS'19746157'
p2177
aS'22285956'
p2178
aS'14751977'
p2179
aS'17276428'
p2180
aS'20416071'
p2181
aS'17660208'
p2182
aS'19683593'
p2183
aS'22651694'
p2184
aS'20546890'
p2185
aS'19833139'
p2186
aS'21292021'
p2187
aS'22560200'
p2188
aS'16893566'
p2189
aS'20673134'
p2190
atp2191
Rp2192
ag1
((lp2193
tp2194
Rp2195
ag1
((lp2196
tp2197
Rp2198
ag1
((lp2199
tp2200
Rp2201
ag1
((lp2202
tp2203
Rp2204
ag1
((lp2205
tp2206
Rp2207
ag1
((lp2208
tp2209
Rp2210
ag1
((lp2211
tp2212
Rp2213
ag1
((lp2214
S'22583832'
p2215
aS'22496953'
p2216
aS'22822409'
p2217
aS'22899174'
p2218
aS'20545311'
p2219
atp2220
Rp2221
ag1
((lp2222
S'12596643'
p2223
atp2224
Rp2225
ag1
((lp2226
S'20929844'
p2227
aS'12843399'
p2228
atp2229
Rp2230
ag1
((lp2231
tp2232
Rp2233
ag1
((lp2234
tp2235
Rp2236
ag1
((lp2237
S'20527819'
p2238
aS'21520923'
p2239
aS'19919039'
p2240
aS'19360894'
p2241
aS'23163737'
p2242
aS'20695589'
p2243
aS'22730384'
p2244
aS'20155984'
p2245
atp2246
Rp2247
ag1
((lp2248
tp2249
Rp2250
ag1
((lp2251
tp2252
Rp2253
ag1
((lp2254
tp2255
Rp2256
ag1
((lp2257
S'22261792'
p2258
aS'21548642'
p2259
atp2260
Rp2261
ag1
((lp2262
tp2263
Rp2264
ag1
((lp2265
S'23170954'
p2266
atp2267
Rp2268
ag1
((lp2269
S'19146380'
p2270
atp2271
Rp2272
ag1
((lp2273
tp2274
Rp2275
ag1
((lp2276
tp2277
Rp2278
ag1
((lp2279
S'18258910'
p2280
atp2281
Rp2282
ag1
((lp2283
tp2284
Rp2285
ag1
((lp2286
S'16630595'
p2287
aS'15230612'
p2288
aS'15808461'
p2289
aS'20438083'
p2290
aS'16115771'
p2291
aS'18819798'
p2292
atp2293
Rp2294
ag1
((lp2295
tp2296
Rp2297
ag1
((lp2298
tp2299
Rp2300
ag1
((lp2301
tp2302
Rp2303
ag1
((lp2304
tp2305
Rp2306
ag1
((lp2307
S'14552627'
p2308
atp2309
Rp2310
ag1
((lp2311
tp2312
Rp2313
ag1
((lp2314
tp2315
Rp2316
ag1
((lp2317
tp2318
Rp2319
ag1
((lp2320
tp2321
Rp2322
ag1
((lp2323
tp2324
Rp2325
ag1
((lp2326
tp2327
Rp2328
ag1
((lp2329
S'22283514'
p2330
aS'16245828'
p2331
aS'19146380'
p2332
aS'17386434'
p2333
aS'11808737'
p2334
aS'11939196'
p2335
atp2336
Rp2337
ag1
((lp2338
S'22725848'
p2339
aS'20155929'
p2340
aS'18968731'
p2341
aS'14686320'
p2342
aS'21662988'
p2343
aS'12619415'
p2344
atp2345
Rp2346
ag1
((lp2347
S'22899174'
p2348
aS'22311619'
p2349
atp2350
Rp2351
ag1
((lp2352
S'21079592'
p2353
aS'22689355'
p2354
aS'23170954'
p2355
atp2356
Rp2357
ag1
((lp2358
S'23338901'
p2359
atp2360
Rp2361
ag1
((lp2362
S'16390146'
p2363
aS'18950150'
p2364
aS'17055332'
p2365
aS'23078597'
p2366
aS'11871915'
p2367
aS'12491748'
p2368
aS'15287798'
p2369
aS'18287279'
p2370
aS'17602478'
p2371
aS'20438083'
p2372
aS'19673473'
p2373
aS'18819798'
p2374
aS'17260970'
p2375
aS'20161419'
p2376
aS'18041836'
p2377
aS'15291542'
p2378
aS'15486092'
p2379
atp2380
Rp2381
ag1
((lp2382
tp2383
Rp2384
ag1
((lp2385
tp2386
Rp2387
ag1
((lp2388
tp2389
Rp2390
ag1
((lp2391
tp2392
Rp2393
ag1
((lp2394
tp2395
Rp2396
ag1
((lp2397
S'21949364'
p2398
atp2399
Rp2400
ag1
((lp2401
tp2402
Rp2403
ag1
((lp2404
tp2405
Rp2406
ag1
((lp2407
S'15291542'
p2408
atp2409
Rp2410
ag1
((lp2411
tp2412
Rp2413
ag1
((lp2414
tp2415
Rp2416
ag1
((lp2417
tp2418
Rp2419
ag1
((lp2420
S'20594575'
p2421
aS'18706564'
p2422
aS'22339202'
p2423
aS'22428566'
p2424
aS'19202810'
p2425
aS'18351095'
p2426
aS'21742335'
p2427
atp2428
Rp2429
ag1
((lp2430
S'14767121'
p2431
aS'16244735'
p2432
aS'18396906'
p2433
aS'23338901'
p2434
aS'15500359'
p2435
aS'22922287'
p2436
aS'20179843'
p2437
aS'16296818'
p2438
aS'11671048'
p2439
aS'15941212'
p2440
aS'21117047'
p2441
aS'17419619'
p2442
aS'15018538'
p2443
aS'14552627'
p2444
aS'19876966'
p2445
aS'19670876'
p2446
aS'15627364'
p2447
aS'22134336'
p2448
aS'12536793'
p2449
aS'15206874'
p2450
aS'17521158'
p2451
aS'20066313'
p2452
aS'17335276'
p2453
aS'19919164'
p2454
aS'22534174'
p2455
aS'16836358'
p2456
aS'11849095'
p2457
aS'11671080'
p2458
atp2459
Rp2460
ag1
((lp2461
tp2462
Rp2463
ag1
((lp2464
S'15544375'
p2465
aS'18211044'
p2466
aS'11162207'
p2467
aS'15225032'
p2468
aS'23137145'
p2469
aS'18537436'
p2470
aS'21247080'
p2471
aS'20476730'
p2472
aS'20199092'
p2473
aS'20707544'
p2474
aS'15998078'
p2475
aS'22136280'
p2476
aS'18067359'
p2477
atp2478
Rp2479
ag1
((lp2480
tp2481
Rp2482
ag1
((lp2483
S'23338901'
p2484
atp2485
Rp2486
ag1
((lp2487
S'20806927'
p2488
aS'20366214'
p2489
aS'22243093'
p2490
aS'22409543'
p2491
aS'22887740'
p2492
aS'23030641'
p2493
aS'19203127'
p2494
aS'21618296'
p2495
aS'21796276'
p2496
aS'22388871'
p2497
aS'17472383'
p2498
aS'22403387'
p2499
aS'19718729'
p2500
aS'22374915'
p2501
aS'21231728'
p2502
aS'21386463'
p2503
aS'17131999'
p2504
aS'20146438'
p2505
aS'20812687'
p2506
aS'22532331'
p2507
aS'19206406'
p2508
aS'21892165'
p2509
aS'22829150'
p2510
atp2511
Rp2512
ag1
((lp2513
S'18950150'
p2514
atp2515
Rp2516
ag1
((lp2517
S'20845350'
p2518
aS'21301717'
p2519
aS'22899174'
p2520
aS'22311619'
p2521
atp2522
Rp2523
ag1
((lp2524
S'18258910'
p2525
atp2526
Rp2527
ag1
((lp2528
S'16099418'
p2529
aS'18676588'
p2530
aS'19548682'
p2531
aS'15366869'
p2532
aS'12141663'
p2533
aS'19338338'
p2534
aS'17113561'
p2535
aS'15221182'
p2536
aS'14632130'
p2537
aS'17937772'
p2538
aS'17435144'
p2539
aS'21057320'
p2540
aS'16683771'
p2541
aS'12194041'
p2542
aS'22311152'
p2543
aS'19856977'
p2544
aS'20636088'
p2545
aS'21527637'
p2546
aS'20192526'
p2547
aS'19715272'
p2548
aS'23215010'
p2549
aS'19195871'
p2550
aS'18970195'
p2551
aS'19653690'
p2552
aS'16125439'
p2553
aS'14632040'
p2554
aS'16878334'
p2555
aS'15144203'
p2556
aS'20655803'
p2557
aS'16194073'
p2558
aS'16522055'
p2559
aS'12033265'
p2560
aS'16318712'
p2561
aS'20852733'
p2562
aS'15516119'
p2563
aS'21949364'
p2564
aS'18763768'
p2565
aS'12656583'
p2566
aS'20002259'
p2567
aS'12413555'
p2568
aS'17965235'
p2569
aS'11985315'
p2570
aS'17723359'
p2571
aS'18318491'
p2572
aS'19563211'
p2573
aS'12672418'
p2574
aS'17973503'
p2575
aS'14961724'
p2576
aS'12706560'
p2577
aS'14599214'
p2578
aS'19192965'
p2579
aS'16608338'
p2580
aS'16131069'
p2581
aS'11866069'
p2582
aS'20023835'
p2583
aS'15623311'
p2584
aS'16478092'
p2585
aS'17140107'
p2586
aS'15821081'
p2587
aS'19518137'
p2588
aS'12875026'
p2589
aS'18229955'
p2590
aS'12619418'
p2591
aS'16053320'
p2592
aS'16957189'
p2593
aS'15900449'
p2594
atp2595
Rp2596
ag1
((lp2597
tp2598
Rp2599
ag1
((lp2600
tp2601
Rp2602
ag1
((lp2603
S'22339202'
p2604
aS'18706564'
p2605
aS'22428566'
p2606
atp2607
Rp2608
ag1
((lp2609
tp2610
Rp2611
ag1
((lp2612
tp2613
Rp2614
ag1
((lp2615
tp2616
Rp2617
ag1
((lp2618
tp2619
Rp2620
ag1
((lp2621
tp2622
Rp2623
ag1
((lp2624
tp2625
Rp2626
ag1
((lp2627
tp2628
Rp2629
ag1
((lp2630
S'20966162'
p2631
aS'12649637'
p2632
aS'20470360'
p2633
aS'21240949'
p2634
aS'12026132'
p2635
atp2636
Rp2637
ag1
((lp2638
tp2639
Rp2640
ag1
((lp2641
tp2642
Rp2643
ag1
((lp2644
S'23097369'
p2645
aS'22118508'
p2646
aS'22118511'
p2647
aS'23139152'
p2648
aS'23259187'
p2649
aS'22118507'
p2650
aS'22118505'
p2651
aS'22056088'
p2652
aS'21898895'
p2653
aS'20883580'
p2654
aS'20397040'
p2655
aS'20387108'
p2656
atp2657
Rp2658
ag1
((lp2659
tp2660
Rp2661
ag1
((lp2662
tp2663
Rp2664
ag1
((lp2665
tp2666
Rp2667
ag1
((lp2668
tp2669
Rp2670
ag1
((lp2671
tp2672
Rp2673
ag1
((lp2674
tp2675
Rp2676
ag1
((lp2677
tp2678
Rp2679
ag1
((lp2680
tp2681
Rp2682
ag1
((lp2683
tp2684
Rp2685
ag1
((lp2686
tp2687
Rp2688
ag1
((lp2689
tp2690
Rp2691
ag1
((lp2692
tp2693
Rp2694
ag1
((lp2695
tp2696
Rp2697
ag1
((lp2698
tp2699
Rp2700
ag1
((lp2701
S'22292994'
p2702
atp2703
Rp2704
ag1
((lp2705
tp2706
Rp2707
ag1
((lp2708
tp2709
Rp2710
ag1
((lp2711
tp2712
Rp2713
ag1
((lp2714
tp2715
Rp2716
ag1
((lp2717
tp2718
Rp2719
ag1
((lp2720
tp2721
Rp2722
ag1
((lp2723
S'23097369'
p2724
aS'23139152'
p2725
aS'22118511'
p2726
atp2727
Rp2728
ag1
((lp2729
tp2730
Rp2731
ag1
((lp2732
tp2733
Rp2734
ag1
((lp2735
tp2736
Rp2737
ag1
((lp2738
tp2739
Rp2740
ag1
((lp2741
tp2742
Rp2743
ag1
((lp2744
tp2745
Rp2746
ag1
((lp2747
tp2748
Rp2749
ag1
((lp2750
tp2751
Rp2752
ag1
((lp2753
tp2754
Rp2755
ag1
((lp2756
tp2757
Rp2758
ag1
((lp2759
tp2760
Rp2761
ag1
((lp2762
tp2763
Rp2764
ag1
((lp2765
tp2766
Rp2767
ag1
((lp2768
tp2769
Rp2770
ag1
((lp2771
tp2772
Rp2773
ag1
((lp2774
tp2775
Rp2776
ag1
((lp2777
tp2778
Rp2779
ag1
((lp2780
tp2781
Rp2782
ag1
((lp2783
S'23097369'
p2784
aS'12470909'
p2785
aS'21244162'
p2786
aS'23259185'
p2787
aS'23139152'
p2788
aS'20397040'
p2789
aS'22118509'
p2790
aS'22056088'
p2791
aS'19554215'
p2792
aS'21898895'
p2793
aS'19586189'
p2794
aS'12448284'
p2795
aS'17352556'
p2796
aS'12395301'
p2797
aS'22118511'
p2798
aS'17347340'
p2799
aS'22118506'
p2800
aS'22118505'
p2801
aS'20446025'
p2802
aS'20387107'
p2803
aS'20883580'
p2804
aS'17349519'
p2805
aS'20387108'
p2806
aS'20407920'
p2807
aS'23259186'
p2808
atp2809
Rp2810
ag1
((lp2811
S'22118508'
p2812
aS'23259185'
p2813
aS'23259186'
p2814
aS'22118507'
p2815
aS'22056088'
p2816
aS'20407920'
p2817
aS'21898895'
p2818
aS'20397040'
p2819
aS'20387107'
p2820
aS'20387108'
p2821
aS'17349519'
p2822
atp2823
Rp2824
ag1
((lp2825
S'21821323'
p2826
aS'20822235'
p2827
aS'21910537'
p2828
atp2829
Rp2830
ag1
((lp2831
tp2832
Rp2833
ag1
((lp2834
S'23259194'
p2835
aS'20387107'
p2836
aS'20883580'
p2837
aS'21898895'
p2838
aS'20387108'
p2839
aS'22056088'
p2840
atp2841
Rp2842
ag1
((lp2843
tp2844
Rp2845
ag1
((lp2846
tp2847
Rp2848
ag1
((lp2849
tp2850
Rp2851
ag1
((lp2852
tp2853
Rp2854
ag1
((lp2855
tp2856
Rp2857
ag1
((lp2858
S'23040754'
p2859
atp2860
Rp2861
ag1
((lp2862
tp2863
Rp2864
ag1
((lp2865
tp2866
Rp2867
ag1
((lp2868
tp2869
Rp2870
ag1
((lp2871
tp2872
Rp2873
ag1
((lp2874
tp2875
Rp2876
ag1
((lp2877
tp2878
Rp2879
ag1
((lp2880
tp2881
Rp2882
ag1
((lp2883
tp2884
Rp2885
ag1
((lp2886
tp2887
Rp2888
ag1
((lp2889
tp2890
Rp2891
ag1
((lp2892
tp2893
Rp2894
ag1
((lp2895
tp2896
Rp2897
ag1
((lp2898
tp2899
Rp2900
ag1
((lp2901
tp2902
Rp2903
ag1
((lp2904
tp2905
Rp2906
ag1
((lp2907
tp2908
Rp2909
ag1
((lp2910
tp2911
Rp2912
ag1
((lp2913
tp2914
Rp2915
ag1
((lp2916
tp2917
Rp2918
ag1
((lp2919
tp2920
Rp2921
ag1
((lp2922
tp2923
Rp2924
ag1
((lp2925
S'12221308'
p2926
atp2927
Rp2928
ag1
((lp2929
S'21910616'
p2930
atp2931
Rp2932
ag1
((lp2933
S'18720774'
p2934
atp2935
Rp2936
ag1
((lp2937
tp2938
Rp2939
ag1
((lp2940
tp2941
Rp2942
ag1
((lp2943
tp2944
Rp2945
ag1
((lp2946
tp2947
Rp2948
ag1
((lp2949
tp2950
Rp2951
ag1
((lp2952
S'21838545'
p2953
atp2954
Rp2955
ag1
((lp2956
S'23259196'
p2957
aS'22118509'
p2958
atp2959
Rp2960
ag1
((lp2961
tp2962
Rp2963
ag1
((lp2964
S'21072249'
p2965
aS'22461722'
p2966
aS'21813852'
p2967
atp2968
Rp2969
ag1
((lp2970
tp2971
Rp2972
ag1
((lp2973
tp2974
Rp2975
ag1
((lp2976
tp2977
Rp2978
ag1
((lp2979
tp2980
Rp2981
ag1
((lp2982
tp2983
Rp2984
ag1
((lp2985
S'21207963'
p2986
atp2987
Rp2988
ag1
((lp2989
tp2990
Rp2991
ag1
((lp2992
tp2993
Rp2994
ag1
((lp2995
tp2996
Rp2997
ag1
((lp2998
tp2999
Rp3000
ag1
((lp3001
S'23222180'
p3002
aS'22976795'
p3003
atp3004
Rp3005
ag1
((lp3006
S'21389205'
p3007
aS'20696419'
p3008
aS'18419943'
p3009
aS'19014955'
p3010
aS'20142112'
p3011
aS'17609178'
p3012
aS'21298345'
p3013
atp3014
Rp3015
ag1
((lp3016
tp3017
Rp3018
ag1
((lp3019
S'15261536'
p3020
aS'23144586'
p3021
aS'17688699'
p3022
aS'21354093'
p3023
aS'22050924'
p3024
aS'22815999'
p3025
aS'17346773'
p3026
aS'18589950'
p3027
aS'19589163'
p3028
aS'19004535'
p3029
atp3030
Rp3031
ag1
((lp3032
tp3033
Rp3034
ag1
((lp3035
tp3036
Rp3037
ag1
((lp3038
tp3039
Rp3040
ag1
((lp3041
tp3042
Rp3043
ag1
((lp3044
S'22820229'
p3045
aS'20094920'
p3046
aS'23222180'
p3047
aS'19890146'
p3048
aS'22642962'
p3049
aS'22461722'
p3050
aS'22515855'
p3051
aS'22815999'
p3052
aS'22736266'
p3053
aS'21292365'
p3054
aS'19890152'
p3055
aS'22976795'
p3056
aS'20123638'
p3057
aS'21354093'
p3058
atp3059
Rp3060
ag1
((lp3061
tp3062
Rp3063
ag1
((lp3064
tp3065
Rp3066
ag1
((lp3067
tp3068
Rp3069
ag1
((lp3070
tp3071
Rp3072
ag1
((lp3073
S'21072249'
p3074
aS'22461722'
p3075
aS'21813852'
p3076
atp3077
Rp3078
ag1
((lp3079
S'21072249'
p3080
aS'22461722'
p3081
aS'21813852'
p3082
atp3083
Rp3084
ag1
((lp3085
S'20229128'
p3086
aS'17697093'
p3087
atp3088
Rp3089
ag1
((lp3090
tp3091
Rp3092
ag1
((lp3093
S'22963031'
p3094
atp3095
Rp3096
ag1
((lp3097
tp3098
Rp3099
ag1
((lp3100
S'19623094'
p3101
atp3102
Rp3103
ag1
((lp3104
tp3105
Rp3106
ag1
((lp3107
tp3108
Rp3109
ag1
((lp3110
tp3111
Rp3112
ag1
((lp3113
tp3114
Rp3115
ag1
((lp3116
S'19881890'
p3117
aS'12745350'
p3118
aS'19328462'
p3119
aS'15906876'
p3120
aS'18701898'
p3121
aS'12685694'
p3122
aS'16075943'
p3123
aS'17955009'
p3124
aS'19116049'
p3125
aS'16177697'
p3126
aS'16681184'
p3127
aS'19004535'
p3128
aS'20457288'
p3129
aS'23009836'
p3130
aS'17666123'
p3131
aS'21275932'
p3132
aS'19874403'
p3133
aS'21653903'
p3134
aS'17495210'
p3135
aS'19996357'
p3136
aS'18579587'
p3137
aS'12702220'
p3138
aS'21347221'
p3139
aS'19958556'
p3140
aS'21287586'
p3141
aS'16631819'
p3142
aS'18716671'
p3143
aS'20229128'
p3144
aS'20042115'
p3145
aS'17650330'
p3146
aS'20807435'
p3147
aS'16099850'
p3148
aS'17942847'
p3149
aS'17000421'
p3150
aS'17636096'
p3151
aS'16392743'
p3152
aS'15018886'
p3153
aS'16520448'
p3154
aS'22183448'
p3155
aS'21487480'
p3156
aS'20717502'
p3157
aS'15044663'
p3158
aS'22050924'
p3159
aS'20419169'
p3160
aS'21734132'
p3161
aS'12730432'
p3162
aS'20638884'
p3163
aS'21649919'
p3164
aS'22302851'
p3165
aS'19199827'
p3166
aS'19635925'
p3167
aS'14736157'
p3168
atp3169
Rp3170
ag1
((lp3171
tp3172
Rp3173
ag1
((lp3174
S'23144586'
p3175
atp3176
Rp3177
ag1
((lp3178
tp3179
Rp3180
ag1
((lp3181
S'18939543'
p3182
aS'22973990'
p3183
aS'18186349'
p3184
aS'15573588'
p3185
aS'22704927'
p3186
aS'15358489'
p3187
aS'21207963'
p3188
aS'20888664'
p3189
aS'21284289'
p3190
aS'15819238'
p3191
aS'15819239'
p3192
atp3193
Rp3194
ag1
((lp3195
S'15573588'
p3196
aS'18186349'
p3197
aS'21053958'
p3198
aS'15358489'
p3199
aS'22115085'
p3200
aS'15819239'
p3201
aS'15819238'
p3202
aS'19673307'
p3203
atp3204
Rp3205
ag1
((lp3206
tp3207
Rp3208
ag1
((lp3209
tp3210
Rp3211
ag1
((lp3212
tp3213
Rp3214
ag1
((lp3215
tp3216
Rp3217
ag1
((lp3218
tp3219
Rp3220
ag1
((lp3221
tp3222
Rp3223
ag1
((lp3224
tp3225
Rp3226
ag1
((lp3227
tp3228
Rp3229
ag1
((lp3230
tp3231
Rp3232
ag1
((lp3233
S'19198956'
p3234
atp3235
Rp3236
ag1
((lp3237
S'21284289'
p3238
aS'22973990'
p3239
aS'18939543'
p3240
aS'22704927'
p3241
atp3242
Rp3243
ag1
((lp3244
S'23222180'
p3245
aS'17474985'
p3246
aS'22050924'
p3247
aS'22815999'
p3248
aS'17387614'
p3249
aS'18972296'
p3250
aS'21905455'
p3251
aS'22976795'
p3252
aS'20953840'
p3253
aS'23356649'
p3254
aS'19129433'
p3255
aS'21647275'
p3256
atp3257
Rp3258
ag1
((lp3259
tp3260
Rp3261
ag1
((lp3262
tp3263
Rp3264
ag1
((lp3265
tp3266
Rp3267
ag1
((lp3268
tp3269
Rp3270
ag1
((lp3271
tp3272
Rp3273
ag1
((lp3274
tp3275
Rp3276
ag1
((lp3277
tp3278
Rp3279
ag1
((lp3280
tp3281
Rp3282
ag1
((lp3283
tp3284
Rp3285
ag1
((lp3286
tp3287
Rp3288
ag1
((lp3289
tp3290
Rp3291
ag1
((lp3292
tp3293
Rp3294
ag1
((lp3295
tp3296
Rp3297
ag1
((lp3298
tp3299
Rp3300
ag1
((lp3301
tp3302
Rp3303
ag1
((lp3304
tp3305
Rp3306
ag1
((lp3307
tp3308
Rp3309
ag1
((lp3310
S'17201788'
p3311
atp3312
Rp3313
ag1
((lp3314
tp3315
Rp3316
ag1
((lp3317
tp3318
Rp3319
ag1
((lp3320
tp3321
Rp3322
ag1
((lp3323
tp3324
Rp3325
ag1
((lp3326
tp3327
Rp3328
ag1
((lp3329
tp3330
Rp3331
ag1
((lp3332
tp3333
Rp3334
ag1
((lp3335
tp3336
Rp3337
ag1
((lp3338
tp3339
Rp3340
ag1
((lp3341
tp3342
Rp3343
ag1
((lp3344
tp3345
Rp3346
ag1
((lp3347
tp3348
Rp3349
ag1
((lp3350
S'17905448'
p3351
aS'20709005'
p3352
aS'18790585'
p3353
aS'22198093'
p3354
aS'21565244'
p3355
aS'20810679'
p3356
aS'23084240'
p3357
atp3358
Rp3359
ag1
((lp3360
tp3361
Rp3362
ag1
((lp3363
tp3364
Rp3365
ag1
((lp3366
tp3367
Rp3368
ag1
((lp3369
tp3370
Rp3371
ag1
((lp3372
tp3373
Rp3374
ag1
((lp3375
tp3376
Rp3377
ag1
((lp3378
tp3379
Rp3380
ag1
((lp3381
tp3382
Rp3383
ag1
((lp3384
tp3385
Rp3386
ag1
((lp3387
tp3388
Rp3389
ag1
((lp3390
tp3391
Rp3392
ag1
((lp3393
tp3394
Rp3395
ag1
((lp3396
tp3397
Rp3398
ag1
((lp3399
tp3400
Rp3401
ag1
((lp3402
tp3403
Rp3404
ag1
((lp3405
tp3406
Rp3407
ag1
((lp3408
tp3409
Rp3410
ag1
((lp3411
tp3412
Rp3413
ag1
((lp3414
tp3415
Rp3416
ag1
((lp3417
S'14686320'
p3418
atp3419
Rp3420
ag1
((lp3421
tp3422
Rp3423
ag1
((lp3424
tp3425
Rp3426
ag1
((lp3427
tp3428
Rp3429
ag1
((lp3430
tp3431
Rp3432
ag1
((lp3433
tp3434
Rp3435
ag1
((lp3436
tp3437
Rp3438
ag1
((lp3439
tp3440
Rp3441
ag1
((lp3442
tp3443
Rp3444
ag1
((lp3445
tp3446
Rp3447
ag1
((lp3448
tp3449
Rp3450
ag1
((lp3451
tp3452
Rp3453
ag1
((lp3454
tp3455
Rp3456
ag1
((lp3457
tp3458
Rp3459
ag1
((lp3460
tp3461
Rp3462
ag1
((lp3463
tp3464
Rp3465
ag1
((lp3466
tp3467
Rp3468
ag1
((lp3469
tp3470
Rp3471
ag1
((lp3472
tp3473
Rp3474
ag1
((lp3475
tp3476
Rp3477
ag1
((lp3478
tp3479
Rp3480
ag1
((lp3481
S'15487139'
p3482
atp3483
Rp3484
ag1
((lp3485
tp3486
Rp3487
ag1
((lp3488
tp3489
Rp3490
ag1
((lp3491
tp3492
Rp3493
ag1
((lp3494
tp3495
Rp3496
ag1
((lp3497
tp3498
Rp3499
ag1
((lp3500
tp3501
Rp3502
ag1
((lp3503
tp3504
Rp3505
ag1
((lp3506
tp3507
Rp3508
ag1
((lp3509
tp3510
Rp3511
ag1
((lp3512
tp3513
Rp3514
ag1
((lp3515
tp3516
Rp3517
ag1
((lp3518
tp3519
Rp3520
ag1
((lp3521
tp3522
Rp3523
ag1
((lp3524
tp3525
Rp3526
ag1
((lp3527
tp3528
Rp3529
ag1
((lp3530
tp3531
Rp3532
ag1
((lp3533
tp3534
Rp3535
ag1
((lp3536
tp3537
Rp3538
ag1
((lp3539
tp3540
Rp3541
ag1
((lp3542
tp3543
Rp3544
ag1
((lp3545
S'19579065'
p3546
aS'12721151'
p3547
aS'17130622'
p3548
aS'17708008'
p3549
aS'19443832'
p3550
aS'15914820'
p3551
aS'15727966'
p3552
aS'21233427'
p3553
aS'19591750'
p3554
aS'18459283'
p3555
atp3556
Rp3557
ag1
((lp3558
tp3559
Rp3560
ag1
((lp3561
tp3562
Rp3563
ag1
((lp3564
tp3565
Rp3566
ag1
((lp3567
tp3568
Rp3569
ag1
((lp3570
tp3571
Rp3572
ag1
((lp3573
tp3574
Rp3575
ag1
((lp3576
tp3577
Rp3578
ag1
((lp3579
tp3580
Rp3581
ag1
((lp3582
tp3583
Rp3584
ag1
((lp3585
tp3586
Rp3587
ag1
((lp3588
tp3589
Rp3590
ag1
((lp3591
S'21367871'
p3592
aS'17039548'
p3593
atp3594
Rp3595
ag1
((lp3596
S'22020249'
p3597
aS'22639542'
p3598
aS'21527637'
p3599
aS'20102628'
p3600
aS'22481134'
p3601
atp3602
Rp3603
ag1
((lp3604
tp3605
Rp3606
ag1
((lp3607
tp3608
Rp3609
ag1
((lp3610
tp3611
Rp3612
ag1
((lp3613
tp3614
Rp3615
ag1
((lp3616
S'20529918'
p3617
aS'18551181'
p3618
aS'20147619'
p3619
aS'22408192'
p3620
aS'12015881'
p3621
aS'21882903'
p3622
aS'21464511'
p3623
aS'19389731'
p3624
atp3625
Rp3626
ag1
((lp3627
tp3628
Rp3629
ag1
((lp3630
tp3631
Rp3632
ag1
((lp3633
tp3634
Rp3635
ag1
((lp3636
tp3637
Rp3638
ag1
((lp3639
tp3640
Rp3641
ag1
((lp3642
S'22102800'
p3643
aS'23270532'
p3644
aS'21292021'
p3645
atp3646
Rp3647
ag1
((lp3648
S'21367871'
p3649
aS'21882903'
p3650
atp3651
Rp3652
ag1
((lp3653
tp3654
Rp3655
ag1
((lp3656
tp3657
Rp3658
ag1
((lp3659
tp3660
Rp3661
ag1
((lp3662
tp3663
Rp3664
ag1
((lp3665
tp3666
Rp3667
ag1
((lp3668
tp3669
Rp3670
ag1
((lp3671
tp3672
Rp3673
ag1
((lp3674
tp3675
Rp3676
ag1
((lp3677
tp3678
Rp3679
ag1
((lp3680
tp3681
Rp3682
ag1
((lp3683
S'21977227'
p3684
atp3685
Rp3686
ag1
((lp3687
S'23307724'
p3688
atp3689
Rp3690
ag1
((lp3691
tp3692
Rp3693
ag1
((lp3694
S'22639542'
p3695
aS'19474297'
p3696
aS'19876380'
p3697
aS'22020249'
p3698
aS'22183218'
p3699
aS'22752091'
p3700
aS'17885688'
p3701
aS'21152935'
p3702
aS'20140217'
p3703
aS'22674387'
p3704
aS'21121032'
p3705
aS'21367871'
p3706
atp3707
Rp3708
ag1
((lp3709
tp3710
Rp3711
ag1
((lp3712
tp3713
Rp3714
ag1
((lp3715
tp3716
Rp3717
ag1
((lp3718
S'22674387'
p3719
aS'22183218'
p3720
aS'22752091'
p3721
aS'21791940'
p3722
atp3723
Rp3724
ag1
((lp3725
tp3726
Rp3727
ag1
((lp3728
tp3729
Rp3730
ag1
((lp3731
tp3732
Rp3733
ag1
((lp3734
tp3735
Rp3736
ag1
((lp3737
tp3738
Rp3739
ag1
((lp3740
tp3741
Rp3742
ag1
((lp3743
tp3744
Rp3745
ag1
((lp3746
tp3747
Rp3748
ag1
((lp3749
tp3750
Rp3751
ag1
((lp3752
tp3753
Rp3754
ag1
((lp3755
tp3756
Rp3757
ag1
((lp3758
tp3759
Rp3760
ag1
((lp3761
tp3762
Rp3763
ag1
((lp3764
tp3765
Rp3766
ag1
((lp3767
tp3768
Rp3769
ag1
((lp3770
tp3771
Rp3772
ag1
((lp3773
tp3774
Rp3775
ag1
((lp3776
tp3777
Rp3778
ag1
((lp3779
tp3780
Rp3781
ag1
((lp3782
tp3783
Rp3784
ag1
((lp3785
tp3786
Rp3787
ag1
((lp3788
tp3789
Rp3790
ag1
((lp3791
tp3792
Rp3793
ag1
((lp3794
tp3795
Rp3796
ag1
((lp3797
tp3798
Rp3799
ag1
((lp3800
tp3801
Rp3802
ag1
((lp3803
tp3804
Rp3805
ag1
((lp3806
tp3807
Rp3808
ag1
((lp3809
tp3810
Rp3811
ag1
((lp3812
tp3813
Rp3814
ag1
((lp3815
tp3816
Rp3817
ag1
((lp3818
tp3819
Rp3820
ag1
((lp3821
tp3822
Rp3823
ag1
((lp3824
tp3825
Rp3826
ag1
((lp3827
tp3828
Rp3829
ag1
((lp3830
tp3831
Rp3832
ag1
((lp3833
tp3834
Rp3835
ag1
((lp3836
tp3837
Rp3838
ag1
((lp3839
tp3840
Rp3841
ag1
((lp3842
tp3843
Rp3844
ag1
((lp3845
tp3846
Rp3847
ag1
((lp3848
tp3849
Rp3850
ag1
((lp3851
tp3852
Rp3853
ag1
((lp3854
tp3855
Rp3856
ag1
((lp3857
tp3858
Rp3859
ag1
((lp3860
tp3861
Rp3862
ag1
((lp3863
tp3864
Rp3865
ag1
((lp3866
tp3867
Rp3868
ag1
((lp3869
tp3870
Rp3871
ag1
((lp3872
tp3873
Rp3874
ag1
((lp3875
tp3876
Rp3877
ag1
((lp3878
tp3879
Rp3880
ag1
((lp3881
tp3882
Rp3883
ag1
((lp3884
tp3885
Rp3886
ag1
((lp3887
tp3888
Rp3889
ag1
((lp3890
tp3891
Rp3892
ag1
((lp3893
tp3894
Rp3895
ag1
((lp3896
tp3897
Rp3898
ag1
((lp3899
tp3900
Rp3901
ag1
((lp3902
tp3903
Rp3904
ag1
((lp3905
tp3906
Rp3907
ag1
((lp3908
tp3909
Rp3910
ag1
((lp3911
tp3912
Rp3913
ag1
((lp3914
tp3915
Rp3916
ag1
((lp3917
tp3918
Rp3919
ag1
((lp3920
tp3921
Rp3922
ag1
((lp3923
tp3924
Rp3925
ag1
((lp3926
tp3927
Rp3928
ag1
((lp3929
tp3930
Rp3931
ag1
((lp3932
tp3933
Rp3934
ag1
((lp3935
S'22316407'
p3936
atp3937
Rp3938
ag1
((lp3939
tp3940
Rp3941
ag1
((lp3942
tp3943
Rp3944
ag1
((lp3945
S'22402040'
p3946
atp3947
Rp3948
ag1
((lp3949
tp3950
Rp3951
ag1
((lp3952
tp3953
Rp3954
ag1
((lp3955
tp3956
Rp3957
ag1
((lp3958
tp3959
Rp3960
ag1
((lp3961
tp3962
Rp3963
ag1
((lp3964
tp3965
Rp3966
ag1
((lp3967
tp3968
Rp3969
ag1
((lp3970
tp3971
Rp3972
ag1
((lp3973
tp3974
Rp3975
ag1
((lp3976
tp3977
Rp3978
ag1
((lp3979
tp3980
Rp3981
ag1
((lp3982
tp3983
Rp3984
ag1
((lp3985
tp3986
Rp3987
ag1
((lp3988
tp3989
Rp3990
ag1
((lp3991
tp3992
Rp3993
ag1
((lp3994
tp3995
Rp3996
ag1
((lp3997
tp3998
Rp3999
ag1
((lp4000
tp4001
Rp4002
ag1
((lp4003
tp4004
Rp4005
ag1
((lp4006
tp4007
Rp4008
ag1
((lp4009
tp4010
Rp4011
ag1
((lp4012
tp4013
Rp4014
ag1
((lp4015
tp4016
Rp4017
ag1
((lp4018
tp4019
Rp4020
ag1
((lp4021
tp4022
Rp4023
ag1
((lp4024
tp4025
Rp4026
ag1
((lp4027
tp4028
Rp4029
ag1
((lp4030
tp4031
Rp4032
ag1
((lp4033
tp4034
Rp4035
ag1
((lp4036
tp4037
Rp4038
ag1
((lp4039
tp4040
Rp4041
ag1
((lp4042
tp4043
Rp4044
ag1
((lp4045
tp4046
Rp4047
ag1
((lp4048
tp4049
Rp4050
ag1
((lp4051
tp4052
Rp4053
ag1
((lp4054
tp4055
Rp4056
ag1
((lp4057
tp4058
Rp4059
ag1
((lp4060
tp4061
Rp4062
ag1
((lp4063
tp4064
Rp4065
ag1
((lp4066
tp4067
Rp4068
ag1
((lp4069
tp4070
Rp4071
ag1
((lp4072
tp4073
Rp4074
ag1
((lp4075
tp4076
Rp4077
ag1
((lp4078
tp4079
Rp4080
ag1
((lp4081
tp4082
Rp4083
ag1
((lp4084
tp4085
Rp4086
ag1
((lp4087
tp4088
Rp4089
ag1
((lp4090
tp4091
Rp4092
ag1
((lp4093
tp4094
Rp4095
ag1
((lp4096
tp4097
Rp4098
ag1
((lp4099
tp4100
Rp4101
ag1
((lp4102
tp4103
Rp4104
ag1
((lp4105
tp4106
Rp4107
ag1
((lp4108
tp4109
Rp4110
ag1
((lp4111
tp4112
Rp4113
ag1
((lp4114
tp4115
Rp4116
ag1
((lp4117
tp4118
Rp4119
ag1
((lp4120
tp4121
Rp4122
ag1
((lp4123
tp4124
Rp4125
ag1
((lp4126
tp4127
Rp4128
ag1
((lp4129
tp4130
Rp4131
ag1
((lp4132
tp4133
Rp4134
ag1
((lp4135
tp4136
Rp4137
ag1
((lp4138
tp4139
Rp4140
ag1
((lp4141
tp4142
Rp4143
ag1
((lp4144
tp4145
Rp4146
ag1
((lp4147
tp4148
Rp4149
ag1
((lp4150
tp4151
Rp4152
ag1
((lp4153
tp4154
Rp4155
ag1
((lp4156
tp4157
Rp4158
ag1
((lp4159
tp4160
Rp4161
ag1
((lp4162
tp4163
Rp4164
ag1
((lp4165
tp4166
Rp4167
ag1
((lp4168
tp4169
Rp4170
ag1
((lp4171
tp4172
Rp4173
ag1
((lp4174
S'22805165'
p4175
atp4176
Rp4177
ag1
((lp4178
tp4179
Rp4180
ag1
((lp4181
tp4182
Rp4183
ag1
((lp4184
tp4185
Rp4186
ag1
((lp4187
tp4188
Rp4189
ag1
((lp4190
tp4191
Rp4192
ag1
((lp4193
tp4194
Rp4195
ag1
((lp4196
tp4197
Rp4198
ag1
((lp4199
tp4200
Rp4201
ag1
((lp4202
tp4203
Rp4204
ag1
((lp4205
tp4206
Rp4207
ag1
((lp4208
tp4209
Rp4210
ag1
((lp4211
tp4212
Rp4213
ag1
((lp4214
tp4215
Rp4216
ag1
((lp4217
tp4218
Rp4219
ag1
((lp4220
tp4221
Rp4222
ag1
((lp4223
tp4224
Rp4225
ag1
((lp4226
tp4227
Rp4228
ag1
((lp4229
tp4230
Rp4231
ag1
((lp4232
tp4233
Rp4234
ag1
((lp4235
tp4236
Rp4237
ag1
((lp4238
tp4239
Rp4240
ag1
((lp4241
tp4242
Rp4243
ag1
((lp4244
tp4245
Rp4246
ag1
((lp4247
tp4248
Rp4249
ag1
((lp4250
tp4251
Rp4252
ag1
((lp4253
tp4254
Rp4255
ag1
((lp4256
tp4257
Rp4258
ag1
((lp4259
tp4260
Rp4261
ag1
((lp4262
tp4263
Rp4264
ag1
((lp4265
tp4266
Rp4267
ag1
((lp4268
tp4269
Rp4270
ag1
((lp4271
tp4272
Rp4273
ag1
((lp4274
tp4275
Rp4276
ag1
((lp4277
tp4278
Rp4279
ag1
((lp4280
S'23202255'
p4281
atp4282
Rp4283
ag1
((lp4284
tp4285
Rp4286
ag1
((lp4287
tp4288
Rp4289
ag1
((lp4290
tp4291
Rp4292
ag1
((lp4293
tp4294
Rp4295
ag1
((lp4296
tp4297
Rp4298
ag1
((lp4299
tp4300
Rp4301
ag1
((lp4302
tp4303
Rp4304
ag1
((lp4305
tp4306
Rp4307
ag1
((lp4308
tp4309
Rp4310
ag1
((lp4311
tp4312
Rp4313
ag1
((lp4314
tp4315
Rp4316
ag1
((lp4317
tp4318
Rp4319
ag1
((lp4320
tp4321
Rp4322
ag1
((lp4323
tp4324
Rp4325
ag1
((lp4326
tp4327
Rp4328
ag1
((lp4329
tp4330
Rp4331
ag1
((lp4332
S'19525780'
p4333
aS'21275932'
p4334
aS'21649919'
p4335
aS'18701898'
p4336
aS'19996357'
p4337
aS'21347221'
p4338
aS'20123638'
p4339
aS'21287586'
p4340
aS'20457288'
p4341
atp4342
Rp4343
ag1
((lp4344
tp4345
Rp4346
ag1
((lp4347
tp4348
Rp4349
ag1
((lp4350
tp4351
Rp4352
ag1
((lp4353
tp4354
Rp4355
ag1
((lp4356
tp4357
Rp4358
ag1
((lp4359
tp4360
Rp4361
ag1
((lp4362
tp4363
Rp4364
ag1
((lp4365
tp4366
Rp4367
ag1
((lp4368
tp4369
Rp4370
ag1
((lp4371
tp4372
Rp4373
ag1
((lp4374
tp4375
Rp4376
ag1
((lp4377
tp4378
Rp4379
ag1
((lp4380
tp4381
Rp4382
ag1
((lp4383
tp4384
Rp4385
ag1
((lp4386
tp4387
Rp4388
ag1
((lp4389
tp4390
Rp4391
ag1
((lp4392
tp4393
Rp4394
ag1
((lp4395
tp4396
Rp4397
ag1
((lp4398
tp4399
Rp4400
ag1
((lp4401
tp4402
Rp4403
ag1
((lp4404
tp4405
Rp4406
ag1
((lp4407
tp4408
Rp4409
ag1
((lp4410
tp4411
Rp4412
ag1
((lp4413
tp4414
Rp4415
ag1
((lp4416
tp4417
Rp4418
ag1
((lp4419
tp4420
Rp4421
ag1
((lp4422
tp4423
Rp4424
ag1
((lp4425
tp4426
Rp4427
ag1
((lp4428
tp4429
Rp4430
ag1
((lp4431
tp4432
Rp4433
ag1
((lp4434
tp4435
Rp4436
ag1
((lp4437
tp4438
Rp4439
ag1
((lp4440
tp4441
Rp4442
ag1
((lp4443
tp4444
Rp4445
ag1
((lp4446
tp4447
Rp4448
ag1
((lp4449
tp4450
Rp4451
ag1
((lp4452
S'17955522'
p4453
aS'15753240'
p4454
atp4455
Rp4456
ag1
((lp4457
tp4458
Rp4459
ag1
((lp4460
tp4461
Rp4462
ag1
((lp4463
tp4464
Rp4465
ag1
((lp4466
tp4467
Rp4468
ag1
((lp4469
tp4470
Rp4471
ag1
((lp4472
tp4473
Rp4474
ag1
((lp4475
tp4476
Rp4477
ag1
((lp4478
tp4479
Rp4480
ag1
((lp4481
tp4482
Rp4483
ag1
((lp4484
tp4485
Rp4486
ag1
((lp4487
tp4488
Rp4489
ag1
((lp4490
tp4491
Rp4492
ag1
((lp4493
tp4494
Rp4495
ag1
((lp4496
tp4497
Rp4498
ag1
((lp4499
tp4500
Rp4501
ag1
((lp4502
tp4503
Rp4504
ag1
((lp4505
tp4506
Rp4507
ag1
((lp4508
tp4509
Rp4510
ag1
((lp4511
tp4512
Rp4513
ag1
((lp4514
tp4515
Rp4516
ag1
((lp4517
tp4518
Rp4519
ag1
((lp4520
tp4521
Rp4522
ag1
((lp4523
S'22829361'
p4524
aS'15813531'
p4525
aS'21775251'
p4526
aS'21961433'
p4527
aS'22514128'
p4528
aS'12962399'
p4529
aS'21225345'
p4530
aS'12790464'
p4531
aS'20004607'
p4532
atp4533
Rp4534
ag1
((lp4535
tp4536
Rp4537
ag1
((lp4538
tp4539
Rp4540
ag1
((lp4541
S'20977986'
p4542
aS'21843996'
p4543
aS'19965008'
p4544
aS'19965002'
p4545
aS'18270089'
p4546
atp4547
Rp4548
ag1
((lp4549
tp4550
Rp4551
ag1
((lp4552
tp4553
Rp4554
ag1
((lp4555
tp4556
Rp4557
ag1
((lp4558
tp4559
Rp4560
ag1
((lp4561
tp4562
Rp4563
ag1
((lp4564
tp4565
Rp4566
ag1
((lp4567
tp4568
Rp4569
ag1
((lp4570
tp4571
Rp4572
ag1
((lp4573
S'21096052'
p4574
aS'19563211'
p4575
aS'19163391'
p4576
aS'21096549'
p4577
aS'21242618'
p4578
aS'23037389'
p4579
atp4580
Rp4581
ag1
((lp4582
tp4583
Rp4584
ag1
((lp4585
S'22829361'
p4586
aS'22255711'
p4587
aS'21540485'
p4588
atp4589
Rp4590
ag1
((lp4591
S'20355535'
p4592
atp4593
Rp4594
ag1
((lp4595
tp4596
Rp4597
ag1
((lp4598
tp4599
Rp4600
ag1
((lp4601
S'22254238'
p4602
atp4603
Rp4604
ag1
((lp4605
tp4606
Rp4607
ag1
((lp4608
tp4609
Rp4610
ag1
((lp4611
tp4612
Rp4613
ag1
((lp4614
tp4615
Rp4616
ag1
((lp4617
tp4618
Rp4619
ag1
((lp4620
tp4621
Rp4622
ag1
((lp4623
tp4624
Rp4625
ag1
((lp4626
tp4627
Rp4628
ag1
((lp4629
tp4630
Rp4631
ag1
((lp4632
S'12777596'
p4633
atp4634
Rp4635
ag1
((lp4636
tp4637
Rp4638
ag1
((lp4639
tp4640
Rp4641
ag1
((lp4642
tp4643
Rp4644
ag1
((lp4645
tp4646
Rp4647
ag1
((lp4648
tp4649
Rp4650
ag1
((lp4651
tp4652
Rp4653
ag1
((lp4654
tp4655
Rp4656
ag1
((lp4657
tp4658
Rp4659
ag1
((lp4660
tp4661
Rp4662
ag1
((lp4663
tp4664
Rp4665
ag1
((lp4666
tp4667
Rp4668
ag1
((lp4669
tp4670
Rp4671
ag1
((lp4672
tp4673
Rp4674
ag1
((lp4675
tp4676
Rp4677
ag1
((lp4678
tp4679
Rp4680
ag1
((lp4681
tp4682
Rp4683
ag1
((lp4684
tp4685
Rp4686
ag1
((lp4687
tp4688
Rp4689
ag1
((lp4690
tp4691
Rp4692
ag1
((lp4693
tp4694
Rp4695
ag1
((lp4696
tp4697
Rp4698
ag1
((lp4699
tp4700
Rp4701
ag1
((lp4702
tp4703
Rp4704
ag1
((lp4705
tp4706
Rp4707
ag1
((lp4708
tp4709
Rp4710
ag1
((lp4711
tp4712
Rp4713
ag1
((lp4714
tp4715
Rp4716
ag1
((lp4717
tp4718
Rp4719
ag1
((lp4720
tp4721
Rp4722
ag1
((lp4723
tp4724
Rp4725
ag1
((lp4726
tp4727
Rp4728
ag1
((lp4729
tp4730
Rp4731
ag1
((lp4732
tp4733
Rp4734
ag1
((lp4735
tp4736
Rp4737
ag1
((lp4738
tp4739
Rp4740
ag1
((lp4741
tp4742
Rp4743
ag1
((lp4744
tp4745
Rp4746
ag1
((lp4747
tp4748
Rp4749
ag1
((lp4750
tp4751
Rp4752
ag1
((lp4753
tp4754
Rp4755
ag1
((lp4756
tp4757
Rp4758
ag1
((lp4759
tp4760
Rp4761
ag1
((lp4762
tp4763
Rp4764
ag1
((lp4765
tp4766
Rp4767
ag1
((lp4768
tp4769
Rp4770
ag1
((lp4771
tp4772
Rp4773
ag1
((lp4774
tp4775
Rp4776
ag1
((lp4777
tp4778
Rp4779
ag1
((lp4780
tp4781
Rp4782
ag1
((lp4783
tp4784
Rp4785
ag1
((lp4786
tp4787
Rp4788
ag1
((lp4789
tp4790
Rp4791
ag1
((lp4792
tp4793
Rp4794
ag1
((lp4795
tp4796
Rp4797
ag1
((lp4798
tp4799
Rp4800
ag1
((lp4801
tp4802
Rp4803
ag1
((lp4804
tp4805
Rp4806
ag1
((lp4807
tp4808
Rp4809
ag1
((lp4810
tp4811
Rp4812
ag1
((lp4813
tp4814
Rp4815
ag1
((lp4816
tp4817
Rp4818
ag1
((lp4819
tp4820
Rp4821
ag1
((lp4822
tp4823
Rp4824
ag1
((lp4825
tp4826
Rp4827
ag1
((lp4828
tp4829
Rp4830
ag1
((lp4831
tp4832
Rp4833
ag1
((lp4834
S'23259195'
p4835
atp4836
Rp4837
ag1
((lp4838
tp4839
Rp4840
ag1
((lp4841
tp4842
Rp4843
ag1
((lp4844
tp4845
Rp4846
ag1
((lp4847
tp4848
Rp4849
ag1
((lp4850
tp4851
Rp4852
ag1
((lp4853
tp4854
Rp4855
ag1
((lp4856
tp4857
Rp4858
ag1
((lp4859
tp4860
Rp4861
ag1
((lp4862
tp4863
Rp4864
ag1
((lp4865
tp4866
Rp4867
ag1
((lp4868
tp4869
Rp4870
ag1
((lp4871
tp4872
Rp4873
ag1
((lp4874
tp4875
Rp4876
ag1
((lp4877
tp4878
Rp4879
ag1
((lp4880
tp4881
Rp4882
ag1
((lp4883
tp4884
Rp4885
ag1
((lp4886
tp4887
Rp4888
ag1
((lp4889
tp4890
Rp4891
ag1
((lp4892
tp4893
Rp4894
ag1
((lp4895
tp4896
Rp4897
ag1
((lp4898
tp4899
Rp4900
ag1
((lp4901
tp4902
Rp4903
ag1
((lp4904
tp4905
Rp4906
ag1
((lp4907
tp4908
Rp4909
ag1
((lp4910
tp4911
Rp4912
ag1
((lp4913
S'21464315'
p4914
atp4915
Rp4916
ag1
((lp4917
tp4918
Rp4919
ag1
((lp4920
tp4921
Rp4922
ag1
((lp4923
tp4924
Rp4925
ag1
((lp4926
tp4927
Rp4928
ag1
((lp4929
tp4930
Rp4931
ag1
((lp4932
tp4933
Rp4934
ag1
((lp4935
tp4936
Rp4937
ag1
((lp4938
tp4939
Rp4940
ag1
((lp4941
tp4942
Rp4943
ag1
((lp4944
tp4945
Rp4946
ag1
((lp4947
tp4948
Rp4949
ag1
((lp4950
tp4951
Rp4952
ag1
((lp4953
tp4954
Rp4955
ag1
((lp4956
tp4957
Rp4958
ag1
((lp4959
tp4960
Rp4961
ag1
((lp4962
tp4963
Rp4964
ag1
((lp4965
tp4966
Rp4967
ag1
((lp4968
tp4969
Rp4970
ag1
((lp4971
tp4972
Rp4973
ag1
((lp4974
tp4975
Rp4976
ag1
((lp4977
tp4978
Rp4979
ag1
((lp4980
tp4981
Rp4982
ag1
((lp4983
tp4984
Rp4985
ag1
((lp4986
tp4987
Rp4988
ag1
((lp4989
tp4990
Rp4991
ag1
((lp4992
tp4993
Rp4994
ag1
((lp4995
tp4996
Rp4997
ag1
((lp4998
tp4999
Rp5000
ag1
((lp5001
tp5002
Rp5003
ag1
((lp5004
tp5005
Rp5006
ag1
((lp5007
tp5008
Rp5009
ag1
((lp5010
tp5011
Rp5012
ag1
((lp5013
tp5014
Rp5015
ag1
((lp5016
tp5017
Rp5018
ag1
((lp5019
tp5020
Rp5021
ag1
((lp5022
tp5023
Rp5024
ag1
((lp5025
tp5026
Rp5027
ag1
((lp5028
tp5029
Rp5030
ag1
((lp5031
tp5032
Rp5033
ag1
((lp5034
tp5035
Rp5036
ag1
((lp5037
tp5038
Rp5039
ag1
((lp5040
tp5041
Rp5042
ag1
((lp5043
tp5044
Rp5045
ag1
((lp5046
tp5047
Rp5048
ag1
((lp5049
tp5050
Rp5051
ag1
((lp5052
tp5053
Rp5054
ag1
((lp5055
tp5056
Rp5057
ag1
((lp5058
tp5059
Rp5060
ag1
((lp5061
tp5062
Rp5063
ag1
((lp5064
tp5065
Rp5066
ag1
((lp5067
tp5068
Rp5069
ag1
((lp5070
tp5071
Rp5072
ag1
((lp5073
tp5074
Rp5075
ag1
((lp5076
tp5077
Rp5078
ag1
((lp5079
tp5080
Rp5081
ag1
((lp5082
tp5083
Rp5084
ag1
((lp5085
S'18085057'
p5086
aS'18511392'
p5087
atp5088
Rp5089
ag1
((lp5090
tp5091
Rp5092
ag1
((lp5093
tp5094
Rp5095
ag1
((lp5096
tp5097
Rp5098
ag1
((lp5099
S'15992989'
p5100
atp5101
Rp5102
ag1
((lp5103
tp5104
Rp5105
ag1
((lp5106
tp5107
Rp5108
ag1
((lp5109
tp5110
Rp5111
ag1
((lp5112
S'16786826'
p5113
atp5114
Rp5115
ag1
((lp5116
tp5117
Rp5118
ag1
((lp5119
tp5120
Rp5121
ag1
((lp5122
tp5123
Rp5124
ag1
((lp5125
tp5126
Rp5127
ag1
((lp5128
tp5129
Rp5130
ag1
((lp5131
tp5132
Rp5133
ag1
((lp5134
tp5135
Rp5136
ag1
((lp5137
tp5138
Rp5139
ag1
((lp5140
tp5141
Rp5142
ag1
((lp5143
tp5144
Rp5145
ag1
((lp5146
tp5147
Rp5148
ag1
((lp5149
tp5150
Rp5151
ag1
((lp5152
tp5153
Rp5154
ag1
((lp5155
tp5156
Rp5157
ag1
((lp5158
tp5159
Rp5160
ag1
((lp5161
tp5162
Rp5163
ag1
((lp5164
tp5165
Rp5166
ag1
((lp5167
tp5168
Rp5169
ag1
((lp5170
tp5171
Rp5172
ag1
((lp5173
tp5174
Rp5175
ag1
((lp5176
tp5177
Rp5178
ag1
((lp5179
tp5180
Rp5181
ag1
((lp5182
S'20671268'
p5183
aS'20065639'
p5184
atp5185
Rp5186
ag1
((lp5187
tp5188
Rp5189
ag1
((lp5190
tp5191
Rp5192
ag1
((lp5193
tp5194
Rp5195
ag1
((lp5196
tp5197
Rp5198
ag1
((lp5199
tp5200
Rp5201
ag1
((lp5202
tp5203
Rp5204
ag1
((lp5205
tp5206
Rp5207
ag1
((lp5208
tp5209
Rp5210
ag1
((lp5211
tp5212
Rp5213
ag1
((lp5214
tp5215
Rp5216
ag1
((lp5217
tp5218
Rp5219
ag1
((lp5220
tp5221
Rp5222
ag1
((lp5223
tp5224
Rp5225
ag1
((lp5226
tp5227
Rp5228
ag1
((lp5229
S'15002813'
p5230
atp5231
Rp5232
ag1
((lp5233
tp5234
Rp5235
ag1
((lp5236
tp5237
Rp5238
ag1
((lp5239
tp5240
Rp5241
ag1
((lp5242
tp5243
Rp5244
ag1
((lp5245
tp5246
Rp5247
ag1
((lp5248
tp5249
Rp5250
ag1
((lp5251
tp5252
Rp5253
ag1
((lp5254
tp5255
Rp5256
ag1
((lp5257
tp5258
Rp5259
ag1
((lp5260
tp5261
Rp5262
ag1
((lp5263
tp5264
Rp5265
ag1
((lp5266
tp5267
Rp5268
ag1
((lp5269
tp5270
Rp5271
ag1
((lp5272
tp5273
Rp5274
ag1
((lp5275
tp5276
Rp5277
ag1
((lp5278
tp5279
Rp5280
ag1
((lp5281
tp5282
Rp5283
ag1
((lp5284
tp5285
Rp5286
ag1
((lp5287
tp5288
Rp5289
ag1
((lp5290
tp5291
Rp5292
ag1
((lp5293
tp5294
Rp5295
ag1
((lp5296
tp5297
Rp5298
ag1
((lp5299
tp5300
Rp5301
ag1
((lp5302
tp5303
Rp5304
ag1
((lp5305
tp5306
Rp5307
ag1
((lp5308
tp5309
Rp5310
ag1
((lp5311
tp5312
Rp5313
ag1
((lp5314
tp5315
Rp5316
ag1
((lp5317
tp5318
Rp5319
ag1
((lp5320
tp5321
Rp5322
ag1
((lp5323
tp5324
Rp5325
ag1
((lp5326
tp5327
Rp5328
ag1
((lp5329
tp5330
Rp5331
ag1
((lp5332
tp5333
Rp5334
ag1
((lp5335
tp5336
Rp5337
ag1
((lp5338
tp5339
Rp5340
ag1
((lp5341
tp5342
Rp5343
ag1
((lp5344
tp5345
Rp5346
ag1
((lp5347
tp5348
Rp5349
ag1
((lp5350
tp5351
Rp5352
ag1
((lp5353
tp5354
Rp5355
ag1
((lp5356
tp5357
Rp5358
ag1
((lp5359
tp5360
Rp5361
ag1
((lp5362
tp5363
Rp5364
ag1
((lp5365
tp5366
Rp5367
ag1
((lp5368
tp5369
Rp5370
ag1
((lp5371
tp5372
Rp5373
ag1
((lp5374
S'20838263'
p5375
aS'20615760'
p5376
atp5377
Rp5378
ag1
((lp5379
tp5380
Rp5381
ag1
((lp5382
tp5383
Rp5384
ag1
((lp5385
tp5386
Rp5387
ag1
((lp5388
tp5389
Rp5390
ag1
((lp5391
tp5392
Rp5393
ag1
((lp5394
tp5395
Rp5396
ag1
((lp5397
tp5398
Rp5399
ag1
((lp5400
tp5401
Rp5402
ag1
((lp5403
tp5404
Rp5405
ag1
((lp5406
tp5407
Rp5408
ag1
((lp5409
tp5410
Rp5411
ag1
((lp5412
tp5413
Rp5414
ag1
((lp5415
tp5416
Rp5417
ag1
((lp5418
tp5419
Rp5420
ag1
((lp5421
tp5422
Rp5423
ag1
((lp5424
tp5425
Rp5426
ag1
((lp5427
tp5428
Rp5429
ag1
((lp5430
tp5431
Rp5432
ag1
((lp5433
tp5434
Rp5435
ag1
((lp5436
tp5437
Rp5438
ag1
((lp5439
tp5440
Rp5441
ag1
((lp5442
tp5443
Rp5444
ag1
((lp5445
tp5446
Rp5447
ag1
((lp5448
tp5449
Rp5450
ag1
((lp5451
tp5452
Rp5453
ag1
((lp5454
tp5455
Rp5456
ag1
((lp5457
tp5458
Rp5459
ag1
((lp5460
tp5461
Rp5462
ag1
((lp5463
tp5464
Rp5465
ag1
((lp5466
S'19831229'
p5467
atp5468
Rp5469
ag1
((lp5470
tp5471
Rp5472
ag1
((lp5473
tp5474
Rp5475
ag1
((lp5476
tp5477
Rp5478
ag1
((lp5479
tp5480
Rp5481
ag1
((lp5482
tp5483
Rp5484
ag1
((lp5485
S'18344587'
p5486
aS'20509357'
p5487
atp5488
Rp5489
ag1
((lp5490
tp5491
Rp5492
ag1
((lp5493
tp5494
Rp5495
ag1
((lp5496
tp5497
Rp5498
ag1
((lp5499
tp5500
Rp5501
ag1
((lp5502
tp5503
Rp5504
ag1
((lp5505
tp5506
Rp5507
ag1
((lp5508
tp5509
Rp5510
ag1
((lp5511
tp5512
Rp5513
ag1
((lp5514
tp5515
Rp5516
ag1
((lp5517
tp5518
Rp5519
ag1
((lp5520
tp5521
Rp5522
ag1
((lp5523
tp5524
Rp5525
ag1
((lp5526
tp5527
Rp5528
ag1
((lp5529
tp5530
Rp5531
ag1
((lp5532
tp5533
Rp5534
ag1
((lp5535
tp5536
Rp5537
ag1
((lp5538
tp5539
Rp5540
ag1
((lp5541
tp5542
Rp5543
ag1
((lp5544
tp5545
Rp5546
ag1
((lp5547
tp5548
Rp5549
ag1
((lp5550
tp5551
Rp5552
ag1
((lp5553
tp5554
Rp5555
ag1
((lp5556
S'20387110'
p5557
aS'18047409'
p5558
aS'12620157'
p5559
aS'22346741'
p5560
aS'15802007'
p5561
aS'15870189'
p5562
aS'19004759'
p5563
atp5564
Rp5565
ag1
((lp5566
tp5567
Rp5568
ag1
((lp5569
tp5570
Rp5571
ag1
((lp5572
tp5573
Rp5574
ag1
((lp5575
tp5576
Rp5577
ag1
((lp5578
tp5579
Rp5580
ag1
((lp5581
tp5582
Rp5583
ag1
((lp5584
tp5585
Rp5586
ag1
((lp5587
tp5588
Rp5589
ag1
((lp5590
tp5591
Rp5592
ag1
((lp5593
tp5594
Rp5595
ag1
((lp5596
tp5597
Rp5598
ag1
((lp5599
tp5600
Rp5601
ag1
((lp5602
S'12962399'
p5603
aS'12790464'
p5604
aS'23008168'
p5605
aS'15813531'
p5606
atp5607
Rp5608
ag1
((lp5609
tp5610
Rp5611
ag1
((lp5612
tp5613
Rp5614
ag1
((lp5615
tp5616
Rp5617
ag1
((lp5618
tp5619
Rp5620
ag1
((lp5621
tp5622
Rp5623
ag1
((lp5624
tp5625
Rp5626
ag1
((lp5627
tp5628
Rp5629
ag1
((lp5630
tp5631
Rp5632
ag1
((lp5633
S'19955423'
p5634
atp5635
Rp5636
ag1
((lp5637
tp5638
Rp5639
ag1
((lp5640
tp5641
Rp5642
ag1
((lp5643
tp5644
Rp5645
ag1
((lp5646
tp5647
Rp5648
ag1
((lp5649
tp5650
Rp5651
ag1
((lp5652
tp5653
Rp5654
ag1
((lp5655
tp5656
Rp5657
ag1
((lp5658
S'11949576'
p5659
aS'16536207'
p5660
aS'18629803'
p5661
atp5662
Rp5663
ag1
((lp5664
tp5665
Rp5666
ag1
((lp5667
tp5668
Rp5669
ag1
((lp5670
S'15455312'
p5671
aS'17928622'
p5672
aS'18516838'
p5673
aS'17710503'
p5674
aS'20411001'
p5675
aS'16646695'
p5676
aS'17240722'
p5677
aS'17063970'
p5678
aS'22373561'
p5679
atp5680
Rp5681
ag1
((lp5682
tp5683
Rp5684
ag1
((lp5685
tp5686
Rp5687
ag1
((lp5688
tp5689
Rp5690
ag1
((lp5691
tp5692
Rp5693
ag1
((lp5694
tp5695
Rp5696
ag1
((lp5697
tp5698
Rp5699
ag1
((lp5700
S'22399221'
p5701
atp5702
Rp5703
ag1
((lp5704
tp5705
Rp5706
ag1
((lp5707
S'22100494'
p5708
atp5709
Rp5710
ag1
((lp5711
tp5712
Rp5713
ag1
((lp5714
S'17465025'
p5715
atp5716
Rp5717
ag1
((lp5718
tp5719
Rp5720
ag1
((lp5721
tp5722
Rp5723
ag1
((lp5724
tp5725
Rp5726
ag1
((lp5727
S'21521905'
p5728
aS'22399221'
p5729
aS'20026216'
p5730
aS'18367277'
p5731
aS'19905955'
p5732
aS'18031805'
p5733
aS'20217775'
p5734
aS'18387349'
p5735
aS'20142112'
p5736
aS'21298345'
p5737
aS'17477447'
p5738
aS'17928622'
p5739
aS'20696419'
p5740
aS'19232717'
p5741
aS'18419943'
p5742
aS'22822409'
p5743
atp5744
Rp5745
ag1
((lp5746
tp5747
Rp5748
ag1
((lp5749
S'15644373'
p5750
atp5751
Rp5752
ag1
((lp5753
tp5754
Rp5755
ag1
((lp5756
tp5757
Rp5758
ag1
((lp5759
tp5760
Rp5761
ag1
((lp5762
tp5763
Rp5764
ag1
((lp5765
tp5766
Rp5767
ag1
((lp5768
tp5769
Rp5770
ag1
((lp5771
S'21160115'
p5772
atp5773
Rp5774
ag1
((lp5775
tp5776
Rp5777
ag1
((lp5778
tp5779
Rp5780
ag1
((lp5781
tp5782
Rp5783
ag1
((lp5784
tp5785
Rp5786
ag1
((lp5787
tp5788
Rp5789
ag1
((lp5790
tp5791
Rp5792
ag1
((lp5793
tp5794
Rp5795
ag1
((lp5796
S'20496408'
p5797
aS'18397023'
p5798
aS'21167202'
p5799
atp5800
Rp5801
ag1
((lp5802
tp5803
Rp5804
ag1
((lp5805
S'20411001'
p5806
atp5807
Rp5808
ag1
((lp5809
tp5810
Rp5811
ag1
((lp5812
tp5813
Rp5814
ag1
((lp5815
tp5816
Rp5817
ag1
((lp5818
tp5819
Rp5820
ag1
((lp5821
tp5822
Rp5823
ag1
((lp5824
tp5825
Rp5826
ag1
((lp5827
tp5828
Rp5829
ag1
((lp5830
tp5831
Rp5832
ag1
((lp5833
tp5834
Rp5835
ag1
((lp5836
tp5837
Rp5838
ag1
((lp5839
tp5840
Rp5841
ag1
((lp5842
tp5843
Rp5844
ag1
((lp5845
tp5846
Rp5847
ag1
((lp5848
tp5849
Rp5850
ag1
((lp5851
tp5852
Rp5853
ag1
((lp5854
tp5855
Rp5856
ag1
((lp5857
tp5858
Rp5859
ag1
((lp5860
tp5861
Rp5862
ag1
((lp5863
tp5864
Rp5865
ag1
((lp5866
tp5867
Rp5868
ag1
((lp5869
tp5870
Rp5871
ag1
((lp5872
tp5873
Rp5874
ag1
((lp5875
tp5876
Rp5877
ag1
((lp5878
tp5879
Rp5880
ag1
((lp5881
tp5882
Rp5883
ag1
((lp5884
tp5885
Rp5886
ag1
((lp5887
tp5888
Rp5889
ag1
((lp5890
tp5891
Rp5892
ag1
((lp5893
tp5894
Rp5895
ag1
((lp5896
tp5897
Rp5898
ag1
((lp5899
tp5900
Rp5901
ag1
((lp5902
tp5903
Rp5904
ag1
((lp5905
tp5906
Rp5907
ag1
((lp5908
tp5909
Rp5910
ag1
((lp5911
tp5912
Rp5913
ag1
((lp5914
tp5915
Rp5916
ag1
((lp5917
tp5918
Rp5919
ag1
((lp5920
tp5921
Rp5922
ag1
((lp5923
tp5924
Rp5925
ag1
((lp5926
tp5927
Rp5928
ag1
((lp5929
tp5930
Rp5931
ag1
((lp5932
tp5933
Rp5934
ag1
((lp5935
tp5936
Rp5937
ag1
((lp5938
tp5939
Rp5940
ag1
((lp5941
tp5942
Rp5943
ag1
((lp5944
tp5945
Rp5946
ag1
((lp5947
tp5948
Rp5949
ag1
((lp5950
tp5951
Rp5952
ag1
((lp5953
tp5954
Rp5955
ag1
((lp5956
tp5957
Rp5958
ag1
((lp5959
tp5960
Rp5961
ag1
((lp5962
tp5963
Rp5964
ag1
((lp5965
tp5966
Rp5967
ag1
((lp5968
tp5969
Rp5970
ag1
((lp5971
tp5972
Rp5973
ag1
((lp5974
tp5975
Rp5976
ag1
((lp5977
tp5978
Rp5979
ag1
((lp5980
tp5981
Rp5982
ag1
((lp5983
S'15162989'
p5984
aS'15256632'
p5985
aS'12819411'
p5986
atp5987
Rp5988
ag1
((lp5989
tp5990
Rp5991
ag1
((lp5992
tp5993
Rp5994
ag1
((lp5995
tp5996
Rp5997
ag1
((lp5998
tp5999
Rp6000
ag1
((lp6001
tp6002
Rp6003
ag1
((lp6004
tp6005
Rp6006
ag1
((lp6007
tp6008
Rp6009
ag1
((lp6010
tp6011
Rp6012
ag1
((lp6013
tp6014
Rp6015
ag1
((lp6016
tp6017
Rp6018
ag1
((lp6019
S'16214684'
p6020
aS'15306440'
p6021
aS'21536582'
p6022
aS'21728688'
p6023
aS'14525035'
p6024
aS'16099758'
p6025
aS'15306438'
p6026
aS'21536567'
p6027
atp6028
Rp6029
ag1
((lp6030
S'12549891'
p6031
aS'17302109'
p6032
atp6033
Rp6034
ag1
((lp6035
tp6036
Rp6037
ag1
((lp6038
S'11833394'
p6039
atp6040
Rp6041
ag1
((lp6042
S'18650766'
p6043
aS'18365845'
p6044
aS'20477563'
p6045
aS'15969275'
p6046
aS'23328815'
p6047
aS'15502253'
p6048
aS'23044364'
p6049
aS'21875386'
p6050
aS'14660237'
p6051
aS'21530724'
p6052
aS'18957732'
p6053
atp6054
Rp6055
ag1
((lp6056
tp6057
Rp6058
ag1
((lp6059
tp6060
Rp6061
ag1
((lp6062
S'22742692'
p6063
atp6064
Rp6065
ag1
((lp6066
tp6067
Rp6068
ag1
((lp6069
tp6070
Rp6071
ag1
((lp6072
tp6073
Rp6074
ag1
((lp6075
tp6076
Rp6077
ag1
((lp6078
tp6079
Rp6080
ag1
((lp6081
tp6082
Rp6083
ag1
((lp6084
tp6085
Rp6086
ag1
((lp6087
tp6088
Rp6089
ag1
((lp6090
tp6091
Rp6092
ag1
((lp6093
tp6094
Rp6095
ag1
((lp6096
tp6097
Rp6098
ag1
((lp6099
tp6100
Rp6101
ag1
((lp6102
tp6103
Rp6104
ag1
((lp6105
S'22369116'
p6106
aS'22257565'
p6107
aS'21875386'
p6108
aS'21664737'
p6109
aS'20077478'
p6110
atp6111
Rp6112
ag1
((lp6113
tp6114
Rp6115
ag1
((lp6116
tp6117
Rp6118
ag1
((lp6119
tp6120
Rp6121
ag1
((lp6122
tp6123
Rp6124
ag1
((lp6125
tp6126
Rp6127
ag1
((lp6128
S'23227269'
p6129
aS'21624480'
p6130
aS'22076974'
p6131
atp6132
Rp6133
ag1
((lp6134
tp6135
Rp6136
ag1
((lp6137
tp6138
Rp6139
ag1
((lp6140
tp6141
Rp6142
ag1
((lp6143
tp6144
Rp6145
ag1
((lp6146
tp6147
Rp6148
ag1
((lp6149
tp6150
Rp6151
ag1
((lp6152
tp6153
Rp6154
ag1
((lp6155
tp6156
Rp6157
ag1
((lp6158
tp6159
Rp6160
ag1
((lp6161
tp6162
Rp6163
ag1
((lp6164
tp6165
Rp6166
ag1
((lp6167
tp6168
Rp6169
ag1
((lp6170
tp6171
Rp6172
ag1
((lp6173
tp6174
Rp6175
ag1
((lp6176
tp6177
Rp6178
ag1
((lp6179
tp6180
Rp6181
ag1
((lp6182
tp6183
Rp6184
ag1
((lp6185
tp6186
Rp6187
ag1
((lp6188
tp6189
Rp6190
ag1
((lp6191
tp6192
Rp6193
ag1
((lp6194
tp6195
Rp6196
ag1
((lp6197
tp6198
Rp6199
ag1
((lp6200
tp6201
Rp6202
ag1
((lp6203
tp6204
Rp6205
ag1
((lp6206
tp6207
Rp6208
ag1
((lp6209
tp6210
Rp6211
ag1
((lp6212
tp6213
Rp6214
ag1
((lp6215
tp6216
Rp6217
ag1
((lp6218
tp6219
Rp6220
ag1
((lp6221
tp6222
Rp6223
ag1
((lp6224
tp6225
Rp6226
ag1
((lp6227
tp6228
Rp6229
ag1
((lp6230
tp6231
Rp6232
ag1
((lp6233
tp6234
Rp6235
ag1
((lp6236
tp6237
Rp6238
ag1
((lp6239
tp6240
Rp6241
ag1
((lp6242
tp6243
Rp6244
ag1
((lp6245
tp6246
Rp6247
ag1
((lp6248
tp6249
Rp6250
ag1
((lp6251
tp6252
Rp6253
ag1
((lp6254
tp6255
Rp6256
ag1
((lp6257
tp6258
Rp6259
ag1
((lp6260
tp6261
Rp6262
ag1
((lp6263
tp6264
Rp6265
ag1
((lp6266
tp6267
Rp6268
ag1
((lp6269
tp6270
Rp6271
ag1
((lp6272
tp6273
Rp6274
ag1
((lp6275
tp6276
Rp6277
ag1
((lp6278
tp6279
Rp6280
ag1
((lp6281
tp6282
Rp6283
ag1
((lp6284
tp6285
Rp6286
ag1
((lp6287
tp6288
Rp6289
ag1
((lp6290
tp6291
Rp6292
ag1
((lp6293
tp6294
Rp6295
ag1
((lp6296
tp6297
Rp6298
ag1
((lp6299
tp6300
Rp6301
ag1
((lp6302
tp6303
Rp6304
ag1
((lp6305
tp6306
Rp6307
ag1
((lp6308
tp6309
Rp6310
ag1
((lp6311
tp6312
Rp6313
ag1
((lp6314
tp6315
Rp6316
ag1
((lp6317
tp6318
Rp6319
ag1
((lp6320
S'15287117'
p6321
aS'22947786'
p6322
aS'14625354'
p6323
aS'19528651'
p6324
atp6325
Rp6326
ag1
((lp6327
tp6328
Rp6329
ag1
((lp6330
tp6331
Rp6332
ag1
((lp6333
tp6334
Rp6335
ag1
((lp6336
S'20185082'
p6337
atp6338
Rp6339
ag1
((lp6340
S'19702471'
p6341
aS'16384553'
p6342
aS'22387723'
p6343
aS'17045978'
p6344
atp6345
Rp6346
ag1
((lp6347
tp6348
Rp6349
ag1
((lp6350
tp6351
Rp6352
ag1
((lp6353
tp6354
Rp6355
ag1
((lp6356
tp6357
Rp6358
ag1
((lp6359
tp6360
Rp6361
ag1
((lp6362
tp6363
Rp6364
ag1
((lp6365
tp6366
Rp6367
ag1
((lp6368
tp6369
Rp6370
ag1
((lp6371
tp6372
Rp6373
ag1
((lp6374
tp6375
Rp6376
ag1
((lp6377
tp6378
Rp6379
ag1
((lp6380
tp6381
Rp6382
ag1
((lp6383
tp6384
Rp6385
ag1
((lp6386
tp6387
Rp6388
ag1
((lp6389
tp6390
Rp6391
ag1
((lp6392
tp6393
Rp6394
ag1
((lp6395
tp6396
Rp6397
ag1
((lp6398
S'23112350'
p6399
atp6400
Rp6401
ag1
((lp6402
tp6403
Rp6404
ag1
((lp6405
tp6406
Rp6407
ag1
((lp6408
S'15132651'
p6409
aS'20656868'
p6410
aS'21207952'
p6411
aS'19128057'
p6412
aS'22893127'
p6413
aS'19890885'
p6414
aS'21425769'
p6415
aS'20858000'
p6416
aS'17064118'
p6417
aS'18498187'
p6418
aS'17628161'
p6419
aS'20217856'
p6420
aS'23335872'
p6421
aS'20044136'
p6422
aS'19874919'
p6423
aS'22199459'
p6424
aS'19804736'
p6425
aS'20942397'
p6426
aS'18313137'
p6427
aS'21235251'
p6428
aS'21706609'
p6429
atp6430
Rp6431
ag1
((lp6432
tp6433
Rp6434
ag1
((lp6435
tp6436
Rp6437
ag1
((lp6438
tp6439
Rp6440
ag1
((lp6441
tp6442
Rp6443
ag1
((lp6444
tp6445
Rp6446
ag1
((lp6447
tp6448
Rp6449
ag1
((lp6450
tp6451
Rp6452
ag1
((lp6453
tp6454
Rp6455
ag1
((lp6456
tp6457
Rp6458
ag1
((lp6459
S'12886211'
p6460
atp6461
Rp6462
ag1
((lp6463
tp6464
Rp6465
ag1
((lp6466
tp6467
Rp6468
ag1
((lp6469
tp6470
Rp6471
ag1
((lp6472
tp6473
Rp6474
ag1
((lp6475
tp6476
Rp6477
ag1
((lp6478
tp6479
Rp6480
ag1
((lp6481
S'20044562'
p6482
atp6483
Rp6484
ag1
((lp6485
tp6486
Rp6487
ag1
((lp6488
tp6489
Rp6490
ag1
((lp6491
tp6492
Rp6493
ag1
((lp6494
tp6495
Rp6496
ag1
((lp6497
tp6498
Rp6499
ag1
((lp6500
tp6501
Rp6502
ag1
((lp6503
tp6504
Rp6505
ag1
((lp6506
tp6507
Rp6508
ag1
((lp6509
tp6510
Rp6511
ag1
((lp6512
tp6513
Rp6514
ag1
((lp6515
tp6516
Rp6517
ag1
((lp6518
tp6519
Rp6520
ag1
((lp6521
tp6522
Rp6523
ag1
((lp6524
tp6525
Rp6526
ag1
((lp6527
tp6528
Rp6529
ag1
((lp6530
tp6531
Rp6532
ag1
((lp6533
tp6534
Rp6535
ag1
((lp6536
tp6537
Rp6538
ag1
((lp6539
S'23112350'
p6540
aS'21121598'
p6541
aS'23009836'
p6542
atp6543
Rp6544
ag1
((lp6545
tp6546
Rp6547
ag1
((lp6548
tp6549
Rp6550
ag1
((lp6551
S'12732026'
p6552
aS'16675664'
p6553
atp6554
Rp6555
ag1
((lp6556
tp6557
Rp6558
ag1
((lp6559
tp6560
Rp6561
ag1
((lp6562
tp6563
Rp6564
ag1
((lp6565
tp6566
Rp6567
ag1
((lp6568
tp6569
Rp6570
ag1
((lp6571
tp6572
Rp6573
ag1
((lp6574
tp6575
Rp6576
ag1
((lp6577
tp6578
Rp6579
ag1
((lp6580
tp6581
Rp6582
ag1
((lp6583
tp6584
Rp6585
ag1
((lp6586
tp6587
Rp6588
ag1
((lp6589
tp6590
Rp6591
ag1
((lp6592
tp6593
Rp6594
ag1
((lp6595
tp6596
Rp6597
ag1
((lp6598
tp6599
Rp6600
ag1
((lp6601
tp6602
Rp6603
ag1
((lp6604
tp6605
Rp6606
ag1
((lp6607
tp6608
Rp6609
ag1
((lp6610
tp6611
Rp6612
ag1
((lp6613
tp6614
Rp6615
ag1
((lp6616
tp6617
Rp6618
ag1
((lp6619
tp6620
Rp6621
ag1
((lp6622
tp6623
Rp6624
ag1
((lp6625
tp6626
Rp6627
ag1
((lp6628
tp6629
Rp6630
ag1
((lp6631
tp6632
Rp6633
ag1
((lp6634
tp6635
Rp6636
ag1
((lp6637
tp6638
Rp6639
ag1
((lp6640
tp6641
Rp6642
ag1
((lp6643
tp6644
Rp6645
ag1
((lp6646
tp6647
Rp6648
ag1
((lp6649
tp6650
Rp6651
ag1
((lp6652
tp6653
Rp6654
ag1
((lp6655
tp6656
Rp6657
ag1
((lp6658
tp6659
Rp6660
ag1
((lp6661
tp6662
Rp6663
ag1
((lp6664
tp6665
Rp6666
ag1
((lp6667
tp6668
Rp6669
ag1
((lp6670
tp6671
Rp6672
ag1
((lp6673
tp6674
Rp6675
ag1
((lp6676
tp6677
Rp6678
ag1
((lp6679
tp6680
Rp6681
ag1
((lp6682
tp6683
Rp6684
ag1
((lp6685
tp6686
Rp6687
ag1
((lp6688
tp6689
Rp6690
ag1
((lp6691
tp6692
Rp6693
ag1
((lp6694
tp6695
Rp6696
ag1
((lp6697
tp6698
Rp6699
ag1
((lp6700
S'23220295'
p6701
atp6702
Rp6703
ag1
((lp6704
S'23357091'
p6705
aS'17517006'
p6706
aS'20116804'
p6707
atp6708
Rp6709
ag1
((lp6710
S'15037750'
p6711
aS'16573690'
p6712
aS'19507422'
p6713
aS'12050664'
p6714
aS'16012515'
p6715
atp6716
Rp6717
ag1
((lp6718
tp6719
Rp6720
ag1
((lp6721
S'15753240'
p6722
aS'17116945'
p6723
atp6724
Rp6725
ag1
((lp6726
S'19679764'
p6727
aS'18191445'
p6728
aS'21264577'
p6729
aS'19590754'
p6730
atp6731
Rp6732
ag1
((lp6733
S'12924854'
p6734
aS'16478300'
p6735
atp6736
Rp6737
ag1
((lp6738
S'15795072'
p6739
aS'21169590'
p6740
aS'16082818'
p6741
aS'19364233'
p6742
aS'22539333'
p6743
aS'19159166'
p6744
aS'17201788'
p6745
aS'22250790'
p6746
aS'12856790'
p6747
aS'23174337'
p6748
aS'12729974'
p6749
aS'22749043'
p6750
aS'15190705'
p6751
aS'18182214'
p6752
aS'21484506'
p6753
aS'19470493'
p6754
aS'12507008'
p6755
aS'17620027'
p6756
aS'16631322'
p6757
aS'16866750'
p6758
aS'20600695'
p6759
aS'21517199'
p6760
aS'18229483'
p6761
atp6762
Rp6763
ag1
((lp6764
S'22285755'
p6765
aS'15085560'
p6766
aS'19022979'
p6767
aS'18804129'
p6768
aS'19829292'
p6769
aS'22153382'
p6770
aS'19634951'
p6771
aS'19831106'
p6772
aS'21669241'
p6773
aS'17063927'
p6774
aS'22429992'
p6775
aS'21399936'
p6776
aS'15534434'
p6777
atp6778
Rp6779
ag1
((lp6780
S'15817744'
p6781
aS'20589493'
p6782
aS'20810897'
p6783
aS'15316711'
p6784
aS'21468623'
p6785
aS'15817748'
p6786
aS'22885872'
p6787
aS'22926005'
p6788
aS'11862372'
p6789
aS'16133129'
p6790
aS'21631540'
p6791
aS'22588250'
p6792
aS'21638221'
p6793
atp6794
Rp6795
ag1
((lp6796
tp6797
Rp6798
ag1
((lp6799
tp6800
Rp6801
ag1
((lp6802
S'17076812'
p6803
aS'19560248'
p6804
aS'20403342'
p6805
aS'17196398'
p6806
aS'22005687'
p6807
atp6808
Rp6809
ag1
((lp6810
tp6811
Rp6812
ag1
((lp6813
tp6814
Rp6815
ag1
((lp6816
tp6817
Rp6818
ag1
((lp6819
tp6820
Rp6821
ag1
((lp6822
tp6823
Rp6824
ag1
((lp6825
tp6826
Rp6827
ag1
((lp6828
S'21599952'
p6829
aS'16644560'
p6830
atp6831
Rp6832
ag1
((lp6833
tp6834
Rp6835
ag1
((lp6836
S'21669241'
p6837
atp6838
Rp6839
ag1
((lp6840
S'17014368'
p6841
aS'12270588'
p6842
aS'21439991'
p6843
aS'18163153'
p6844
aS'22387723'
p6845
aS'12751809'
p6846
aS'12419410'
p6847
aS'22245030'
p6848
aS'18948089'
p6849
aS'17950262'
p6850
aS'17076811'
p6851
aS'20307557'
p6852
aS'19560248'
p6853
aS'20161320'
p6854
aS'16546247'
p6855
aS'21461123'
p6856
aS'22005687'
p6857
aS'16737390'
p6858
aS'17196398'
p6859
aS'17850242'
p6860
aS'17076812'
p6861
aS'19590754'
p6862
aS'20403342'
p6863
aS'21264577'
p6864
aS'12751813'
p6865
aS'18191445'
p6866
aS'19864961'
p6867
aS'19679764'
p6868
aS'20476892'
p6869
aS'19430590'
p6870
aS'15922167'
p6871
aS'12462512'
p6872
aS'16876436'
p6873
aS'20602284'
p6874
aS'19298629'
p6875
aS'12191460'
p6876
aS'16176372'
p6877
atp6878
Rp6879
ag1
((lp6880
tp6881
Rp6882
ag1
((lp6883
tp6884
Rp6885
ag1
((lp6886
S'21186915'
p6887
aS'22451481'
p6888
aS'22356881'
p6889
aS'19739909'
p6890
aS'21896496'
p6891
atp6892
Rp6893
ag1
((lp6894
S'20936080'
p6895
aS'16251167'
p6896
aS'19386472'
p6897
aS'17674356'
p6898
aS'22245030'
p6899
aS'18248739'
p6900
aS'17400197'
p6901
aS'20175676'
p6902
aS'18450178'
p6903
aS'19564165'
p6904
aS'20383285'
p6905
aS'12751813'
p6906
aS'16876436'
p6907
aS'18792500'
p6908
aS'23284226'
p6909
aS'22387723'
p6910
aS'16846262'
p6911
aS'17666031'
p6912
aS'22199415'
p6913
aS'17076811'
p6914
aS'20307557'
p6915
aS'19765622'
p6916
aS'19702471'
p6917
aS'17850242'
p6918
aS'16546247'
p6919
aS'16737390'
p6920
aS'21267802'
p6921
aS'20824153'
p6922
aS'19121125'
p6923
aS'12462512'
p6924
aS'22584232'
p6925
atp6926
Rp6927
ag1
((lp6928
tp6929
Rp6930
ag1
((lp6931
S'15582860'
p6932
aS'18491489'
p6933
atp6934
Rp6935
ag1
((lp6936
tp6937
Rp6938
ag1
((lp6939
S'15817744'
p6940
aS'20589493'
p6941
aS'20810897'
p6942
aS'22588250'
p6943
aS'20016773'
p6944
aS'18523737'
p6945
aS'12373446'
p6946
aS'15817748'
p6947
aS'12093591'
p6948
aS'12373445'
p6949
aS'15322726'
p6950
aS'22926005'
p6951
aS'18789966'
p6952
aS'21631540'
p6953
aS'15316711'
p6954
aS'18097654'
p6955
aS'21416141'
p6956
aS'14593091'
p6957
aS'21197616'
p6958
aS'19099296'
p6959
aS'11862372'
p6960
aS'17440711'
p6961
aS'12658527'
p6962
aS'15019428'
p6963
aS'14609546'
p6964
aS'21468623'
p6965
aS'15496936'
p6966
aS'18641974'
p6967
aS'22885872'
p6968
aS'17297635'
p6969
aS'17952412'
p6970
aS'21638221'
p6971
aS'17136400'
p6972
aS'12706449'
p6973
aS'18071678'
p6974
aS'14647970'
p6975
aS'17978016'
p6976
aS'18305458'
p6977
aS'19513697'
p6978
aS'21734276'
p6979
aS'15517195'
p6980
aS'15668724'
p6981
aS'16839619'
p6982
aS'16133129'
p6983
aS'16249907'
p6984
atp6985
Rp6986
ag1
((lp6987
S'21461123'
p6988
aS'19430590'
p6989
aS'20602284'
p6990
aS'19298629'
p6991
aS'20476892'
p6992
aS'18163153'
p6993
aS'18948089'
p6994
atp6995
Rp6996
ag1
((lp6997
tp6998
Rp6999
ag1
((lp7000
tp7001
Rp7002
ag1
((lp7003
tp7004
Rp7005
ag1
((lp7006
S'22588250'
p7007
atp7008
Rp7009
ag1
((lp7010
S'11990321'
p7011
aS'19507422'
p7012
aS'21347878'
p7013
aS'21823775'
p7014
atp7015
Rp7016
ag1
((lp7017
S'15019428'
p7018
aS'15496936'
p7019
aS'21416141'
p7020
aS'14992743'
p7021
aS'21839142'
p7022
aS'21734276'
p7023
aS'21570990'
p7024
aS'15668724'
p7025
atp7026
Rp7027
ag1
((lp7028
tp7029
Rp7030
ag1
((lp7031
tp7032
Rp7033
ag1
((lp7034
tp7035
Rp7036
ag1
((lp7037
tp7038
Rp7039
ag1
((lp7040
tp7041
Rp7042
ag1
((lp7043
tp7044
Rp7045
ag1
((lp7046
S'21416141'
p7047
aS'20810897'
p7048
aS'21734276'
p7049
aS'22926005'
p7050
aS'21638221'
p7051
atp7052
Rp7053
ag1
((lp7054
S'17955522'
p7055
aS'15132428'
p7056
aS'15753240'
p7057
aS'21724666'
p7058
aS'19625997'
p7059
aS'20855060'
p7060
aS'19743481'
p7061
aS'22059518'
p7062
aS'16891563'
p7063
aS'19805700'
p7064
aS'14757593'
p7065
aS'21306214'
p7066
aS'17116945'
p7067
atp7068
Rp7069
ag1
((lp7070
S'19513991'
p7071
aS'16649857'
p7072
aS'19170942'
p7073
aS'21653581'
p7074
aS'18793083'
p7075
aS'18808268'
p7076
aS'18793040'
p7077
aS'19309203'
p7078
aS'17123158'
p7079
atp7080
Rp7081
ag1
((lp7082
tp7083
Rp7084
ag1
((lp7085
tp7086
Rp7087
ag1
((lp7088
tp7089
Rp7090
ag1
((lp7091
tp7092
Rp7093
ag1
((lp7094
S'17723221'
p7095
aS'22013428'
p7096
aS'18804129'
p7097
aS'19733954'
p7098
aS'22663158'
p7099
aS'21463650'
p7100
aS'16085130'
p7101
aS'22819803'
p7102
aS'12419410'
p7103
aS'22612602'
p7104
aS'18491489'
p7105
aS'20144826'
p7106
aS'19346050'
p7107
aS'17081573'
p7108
aS'18430411'
p7109
aS'19831106'
p7110
aS'20852234'
p7111
aS'19100525'
p7112
aS'22336560'
p7113
aS'23060831'
p7114
aS'22978497'
p7115
aS'22386635'
p7116
aS'19076318'
p7117
aS'19939357'
p7118
aS'21988325'
p7119
aS'22512368'
p7120
aS'20832925'
p7121
aS'20621285'
p7122
atp7123
Rp7124
ag1
((lp7125
S'21964668'
p7126
aS'23092674'
p7127
aS'17694903'
p7128
aS'22663158'
p7129
aS'22030349'
p7130
aS'21058877'
p7131
aS'22612602'
p7132
aS'23116414'
p7133
aS'17848025'
p7134
atp7135
Rp7136
ag1
((lp7137
tp7138
Rp7139
ag1
((lp7140
S'22512368'
p7141
aS'23060831'
p7142
atp7143
Rp7144
ag1
((lp7145
S'22059518'
p7146
aS'20001122'
p7147
aS'16624961'
p7148
aS'20141309'
p7149
aS'20674090'
p7150
aS'19486944'
p7151
atp7152
Rp7153
ag1
((lp7154
tp7155
Rp7156
ag1
((lp7157
tp7158
Rp7159
ag1
((lp7160
tp7161
Rp7162
ag1
((lp7163
tp7164
Rp7165
ag1
((lp7166
tp7167
Rp7168
ag1
((lp7169
tp7170
Rp7171
ag1
((lp7172
tp7173
Rp7174
ag1
((lp7175
tp7176
Rp7177
ag1
((lp7178
tp7179
Rp7180
ag1
((lp7181
tp7182
Rp7183
ag1
((lp7184
tp7185
Rp7186
ag1
((lp7187
tp7188
Rp7189
ag1
((lp7190
tp7191
Rp7192
ag1
((lp7193
tp7194
Rp7195
ag1
((lp7196
tp7197
Rp7198
ag1
((lp7199
tp7200
Rp7201
ag1
((lp7202
tp7203
Rp7204
ag1
((lp7205
tp7206
Rp7207
ag1
((lp7208
tp7209
Rp7210
ag1
((lp7211
tp7212
Rp7213
ag1
((lp7214
tp7215
Rp7216
ag1
((lp7217
tp7218
Rp7219
ag1
((lp7220
tp7221
Rp7222
ag1
((lp7223
tp7224
Rp7225
ag1
((lp7226
tp7227
Rp7228
ag1
((lp7229
tp7230
Rp7231
ag1
((lp7232
tp7233
Rp7234
ag1
((lp7235
tp7236
Rp7237
ag1
((lp7238
tp7239
Rp7240
ag1
((lp7241
tp7242
Rp7243
ag1
((lp7244
tp7245
Rp7246
ag1
((lp7247
tp7248
Rp7249
ag1
((lp7250
tp7251
Rp7252
ag1
((lp7253
tp7254
Rp7255
ag1
((lp7256
tp7257
Rp7258
ag1
((lp7259
tp7260
Rp7261
ag1
((lp7262
tp7263
Rp7264
ag1
((lp7265
tp7266
Rp7267
ag1
((lp7268
tp7269
Rp7270
ag1
((lp7271
tp7272
Rp7273
ag1
((lp7274
tp7275
Rp7276
ag1
((lp7277
tp7278
Rp7279
ag1
((lp7280
tp7281
Rp7282
ag1
((lp7283
tp7284
Rp7285
ag1
((lp7286
tp7287
Rp7288
ag1
((lp7289
tp7290
Rp7291
ag1
((lp7292
tp7293
Rp7294
ag1
((lp7295
tp7296
Rp7297
ag1
((lp7298
tp7299
Rp7300
ag1
((lp7301
tp7302
Rp7303
ag1
((lp7304
tp7305
Rp7306
ag1
((lp7307
tp7308
Rp7309
ag1
((lp7310
tp7311
Rp7312
ag1
((lp7313
tp7314
Rp7315
ag1
((lp7316
tp7317
Rp7318
ag1
((lp7319
tp7320
Rp7321
ag1
((lp7322
tp7323
Rp7324
ag1
((lp7325
tp7326
Rp7327
ag1
((lp7328
tp7329
Rp7330
ag1
((lp7331
tp7332
Rp7333
ag1
((lp7334
tp7335
Rp7336
ag1
((lp7337
tp7338
Rp7339
ag1
((lp7340
tp7341
Rp7342
ag1
((lp7343
tp7344
Rp7345
ag1
((lp7346
tp7347
Rp7348
ag1
((lp7349
tp7350
Rp7351
ag1
((lp7352
tp7353
Rp7354
ag1
((lp7355
tp7356
Rp7357
ag1
((lp7358
tp7359
Rp7360
ag1
((lp7361
tp7362
Rp7363
ag1
((lp7364
tp7365
Rp7366
ag1
((lp7367
tp7368
Rp7369
ag1
((lp7370
tp7371
Rp7372
ag1
((lp7373
tp7374
Rp7375
ag1
((lp7376
tp7377
Rp7378
ag1
((lp7379
tp7380
Rp7381
ag1
((lp7382
tp7383
Rp7384
ag1
((lp7385
tp7386
Rp7387
ag1
((lp7388
tp7389
Rp7390
ag1
((lp7391
tp7392
Rp7393
ag1
((lp7394
tp7395
Rp7396
ag1
((lp7397
tp7398
Rp7399
ag1
((lp7400
tp7401
Rp7402
ag1
((lp7403
tp7404
Rp7405
ag1
((lp7406
tp7407
Rp7408
ag1
((lp7409
tp7410
Rp7411
ag1
((lp7412
tp7413
Rp7414
ag1
((lp7415
tp7416
Rp7417
ag1
((lp7418
tp7419
Rp7420
ag1
((lp7421
tp7422
Rp7423
ag1
((lp7424
tp7425
Rp7426
ag1
((lp7427
tp7428
Rp7429
ag1
((lp7430
tp7431
Rp7432
ag1
((lp7433
tp7434
Rp7435
ag1
((lp7436
tp7437
Rp7438
ag1
((lp7439
tp7440
Rp7441
ag1
((lp7442
tp7443
Rp7444
ag1
((lp7445
tp7446
Rp7447
ag1
((lp7448
S'18939543'
p7449
aS'22973990'
p7450
aS'18186349'
p7451
aS'15573588'
p7452
aS'20888664'
p7453
aS'22115085'
p7454
aS'21284289'
p7455
aS'15819238'
p7456
aS'15819239'
p7457
atp7458
Rp7459
ag1
((lp7460
tp7461
Rp7462
ag1
((lp7463
tp7464
Rp7465
ag1
((lp7466
tp7467
Rp7468
ag1
((lp7469
tp7470
Rp7471
ag1
((lp7472
tp7473
Rp7474
ag1
((lp7475
tp7476
Rp7477
ag1
((lp7478
tp7479
Rp7480
ag1
((lp7481
tp7482
Rp7483
ag1
((lp7484
tp7485
Rp7486
ag1
((lp7487
tp7488
Rp7489
ag1
((lp7490
tp7491
Rp7492
ag1
((lp7493
tp7494
Rp7495
ag1
((lp7496
tp7497
Rp7498
ag1
((lp7499
tp7500
Rp7501
ag1
((lp7502
tp7503
Rp7504
ag1
((lp7505
tp7506
Rp7507
ag1
((lp7508
tp7509
Rp7510
ag1
((lp7511
tp7512
Rp7513
ag1
((lp7514
tp7515
Rp7516
ag1
((lp7517
tp7518
Rp7519
ag1
((lp7520
tp7521
Rp7522
ag1
((lp7523
tp7524
Rp7525
ag1
((lp7526
tp7527
Rp7528
ag1
((lp7529
tp7530
Rp7531
ag1
((lp7532
tp7533
Rp7534
ag1
((lp7535
tp7536
Rp7537
ag1
((lp7538
tp7539
Rp7540
ag1
((lp7541
S'21893374'
p7542
atp7543
Rp7544
ag1
((lp7545
tp7546
Rp7547
ag1
((lp7548
tp7549
Rp7550
ag1
((lp7551
tp7552
Rp7553
ag1
((lp7554
tp7555
Rp7556
ag1
((lp7557
tp7558
Rp7559
ag1
((lp7560
tp7561
Rp7562
ag1
((lp7563
tp7564
Rp7565
ag1
((lp7566
S'22899830'
p7567
atp7568
Rp7569
ag1
((lp7570
tp7571
Rp7572
ag1
((lp7573
tp7574
Rp7575
ag1
((lp7576
tp7577
Rp7578
ag1
((lp7579
tp7580
Rp7581
ag1
((lp7582
tp7583
Rp7584
ag1
((lp7585
tp7586
Rp7587
ag1
((lp7588
tp7589
Rp7590
ag1
((lp7591
tp7592
Rp7593
ag1
((lp7594
tp7595
Rp7596
ag1
((lp7597
tp7598
Rp7599
ag1
((lp7600
tp7601
Rp7602
ag1
((lp7603
tp7604
Rp7605
ag1
((lp7606
tp7607
Rp7608
ag1
((lp7609
tp7610
Rp7611
ag1
((lp7612
tp7613
Rp7614
ag1
((lp7615
tp7616
Rp7617
ag1
((lp7618
tp7619
Rp7620
ag1
((lp7621
tp7622
Rp7623
ag1
((lp7624
tp7625
Rp7626
ag1
((lp7627
tp7628
Rp7629
ag1
((lp7630
tp7631
Rp7632
ag1
((lp7633
tp7634
Rp7635
ag1
((lp7636
tp7637
Rp7638
ag1
((lp7639
tp7640
Rp7641
ag1
((lp7642
tp7643
Rp7644
ag1
((lp7645
tp7646
Rp7647
ag1
((lp7648
tp7649
Rp7650
ag1
((lp7651
tp7652
Rp7653
ag1
((lp7654
tp7655
Rp7656
ag1
((lp7657
tp7658
Rp7659
ag1
((lp7660
tp7661
Rp7662
ag1
((lp7663
tp7664
Rp7665
ag1
((lp7666
tp7667
Rp7668
ag1
((lp7669
tp7670
Rp7671
ag1
((lp7672
tp7673
Rp7674
ag1
((lp7675
tp7676
Rp7677
ag1
((lp7678
tp7679
Rp7680
ag1
((lp7681
tp7682
Rp7683
ag1
((lp7684
tp7685
Rp7686
ag1
((lp7687
tp7688
Rp7689
ag1
((lp7690
tp7691
Rp7692
ag1
((lp7693
tp7694
Rp7695
ag1
((lp7696
tp7697
Rp7698
ag1
((lp7699
tp7700
Rp7701
ag1
((lp7702
tp7703
Rp7704
ag1
((lp7705
tp7706
Rp7707
ag1
((lp7708
tp7709
Rp7710
ag1
((lp7711
tp7712
Rp7713
ag1
((lp7714
tp7715
Rp7716
ag1
((lp7717
S'22937358'
p7718
aS'22875877'
p7719
atp7720
Rp7721
ag1
((lp7722
tp7723
Rp7724
ag1
((lp7725
tp7726
Rp7727
ag1
((lp7728
tp7729
Rp7730
ag1
((lp7731
tp7732
Rp7733
ag1
((lp7734
tp7735
Rp7736
ag1
((lp7737
tp7738
Rp7739
ag1
((lp7740
tp7741
Rp7742
ag1
((lp7743
tp7744
Rp7745
ag1
((lp7746
tp7747
Rp7748
ag1
((lp7749
tp7750
Rp7751
ag1
((lp7752
tp7753
Rp7754
ag1
((lp7755
tp7756
Rp7757
ag1
((lp7758
tp7759
Rp7760
ag1
((lp7761
tp7762
Rp7763
ag1
((lp7764
tp7765
Rp7766
ag1
((lp7767
tp7768
Rp7769
ag1
((lp7770
tp7771
Rp7772
ag1
((lp7773
tp7774
Rp7775
ag1
((lp7776
tp7777
Rp7778
ag1
((lp7779
tp7780
Rp7781
ag1
((lp7782
tp7783
Rp7784
ag1
((lp7785
tp7786
Rp7787
ag1
((lp7788
tp7789
Rp7790
ag1
((lp7791
tp7792
Rp7793
ag1
((lp7794
tp7795
Rp7796
ag1
((lp7797
tp7798
Rp7799
ag1
((lp7800
tp7801
Rp7802
ag1
((lp7803
tp7804
Rp7805
ag1
((lp7806
tp7807
Rp7808
ag1
((lp7809
tp7810
Rp7811
ag1
((lp7812
tp7813
Rp7814
ag1
((lp7815
tp7816
Rp7817
ag1
((lp7818
tp7819
Rp7820
ag1
((lp7821
tp7822
Rp7823
ag1
((lp7824
tp7825
Rp7826
ag1
((lp7827
tp7828
Rp7829
ag1
((lp7830
tp7831
Rp7832
ag1
((lp7833
tp7834
Rp7835
ag1
((lp7836
tp7837
Rp7838
ag1
((lp7839
tp7840
Rp7841
ag1
((lp7842
tp7843
Rp7844
ag1
((lp7845
tp7846
Rp7847
ag1
((lp7848
tp7849
Rp7850
ag1
((lp7851
tp7852
Rp7853
ag1
((lp7854
tp7855
Rp7856
ag1
((lp7857
tp7858
Rp7859
ag1
((lp7860
tp7861
Rp7862
ag1
((lp7863
tp7864
Rp7865
ag1
((lp7866
tp7867
Rp7868
ag1
((lp7869
tp7870
Rp7871
ag1
((lp7872
tp7873
Rp7874
ag1
((lp7875
tp7876
Rp7877
ag1
((lp7878
tp7879
Rp7880
ag1
((lp7881
tp7882
Rp7883
ag1
((lp7884
tp7885
Rp7886
ag1
((lp7887
tp7888
Rp7889
ag1
((lp7890
tp7891
Rp7892
ag1
((lp7893
tp7894
Rp7895
ag1
((lp7896
tp7897
Rp7898
ag1
((lp7899
tp7900
Rp7901
ag1
((lp7902
tp7903
Rp7904
ag1
((lp7905
tp7906
Rp7907
ag1
((lp7908
tp7909
Rp7910
ag1
((lp7911
tp7912
Rp7913
ag1
((lp7914
tp7915
Rp7916
ag1
((lp7917
tp7918
Rp7919
ag1
((lp7920
tp7921
Rp7922
ag1
((lp7923
tp7924
Rp7925
ag1
((lp7926
tp7927
Rp7928
ag1
((lp7929
tp7930
Rp7931
ag1
((lp7932
tp7933
Rp7934
ag1
((lp7935
tp7936
Rp7937
ag1
((lp7938
tp7939
Rp7940
ag1
((lp7941
tp7942
Rp7943
ag1
((lp7944
tp7945
Rp7946
ag1
((lp7947
tp7948
Rp7949
ag1
((lp7950
tp7951
Rp7952
ag1
((lp7953
tp7954
Rp7955
ag1
((lp7956
tp7957
Rp7958
ag1
((lp7959
tp7960
Rp7961
ag1
((lp7962
tp7963
Rp7964
ag1
((lp7965
tp7966
Rp7967
ag1
((lp7968
tp7969
Rp7970
ag1
((lp7971
tp7972
Rp7973
ag1
((lp7974
tp7975
Rp7976
ag1
((lp7977
tp7978
Rp7979
ag1
((lp7980
tp7981
Rp7982
ag1
((lp7983
tp7984
Rp7985
ag1
((lp7986
tp7987
Rp7988
ag1
((lp7989
tp7990
Rp7991
ag1
((lp7992
tp7993
Rp7994
ag1
((lp7995
tp7996
Rp7997
ag1
((lp7998
tp7999
Rp8000
ag1
((lp8001
tp8002
Rp8003
ag1
((lp8004
tp8005
Rp8006
ag1
((lp8007
tp8008
Rp8009
ag1
((lp8010
tp8011
Rp8012
ag1
((lp8013
tp8014
Rp8015
ag1
((lp8016
tp8017
Rp8018
ag1
((lp8019
tp8020
Rp8021
ag1
((lp8022
tp8023
Rp8024
ag1
((lp8025
S'22014193'
p8026
aS'20056563'
p8027
aS'21447452'
p8028
aS'22897522'
p8029
aS'19367483'
p8030
aS'21680563'
p8031
aS'21792981'
p8032
atp8033
Rp8034
ag1
((lp8035
tp8036
Rp8037
ag1
((lp8038
tp8039
Rp8040
ag1
((lp8041
tp8042
Rp8043
ag1
((lp8044
tp8045
Rp8046
ag1
((lp8047
tp8048
Rp8049
ag1
((lp8050
tp8051
Rp8052
ag1
((lp8053
tp8054
Rp8055
ag1
((lp8056
S'21654761'
p8057
aS'22256352'
p8058
aS'14594492'
p8059
aS'19757230'
p8060
aS'14982075'
p8061
aS'16619467'
p8062
aS'15675049'
p8063
aS'17551133'
p8064
aS'17970245'
p8065
aS'23172048'
p8066
aS'15025119'
p8067
aS'16030328'
p8068
atp8069
Rp8070
ag1
((lp8071
tp8072
Rp8073
ag1
((lp8074
tp8075
Rp8076
ag1
((lp8077
tp8078
Rp8079
ag1
((lp8080
tp8081
Rp8082
ag1
((lp8083
tp8084
Rp8085
ag1
((lp8086
tp8087
Rp8088
ag1
((lp8089
tp8090
Rp8091
ag1
((lp8092
tp8093
Rp8094
ag1
((lp8095
tp8096
Rp8097
ag1
((lp8098
S'20094920'
p8099
atp8100
Rp8101
ag1
((lp8102
tp8103
Rp8104
ag1
((lp8105
tp8106
Rp8107
ag1
((lp8108
S'19551842'
p8109
aS'15671301'
p8110
aS'15060903'
p8111
aS'15325916'
p8112
aS'17420169'
p8113
aS'14704331'
p8114
aS'15277142'
p8115
aS'22854406'
p8116
aS'16210712'
p8117
aS'12235648'
p8118
aS'18806094'
p8119
aS'19447020'
p8120
aS'12055355'
p8121
aS'12145015'
p8122
aS'16401635'
p8123
aS'18454810'
p8124
aS'15808327'
p8125
aS'15531678'
p8126
aS'21421799'
p8127
aS'19176732'
p8128
aS'17913222'
p8129
aS'15972614'
p8130
aS'19958556'
p8131
aS'19381778'
p8132
aS'16400064'
p8133
aS'15894421'
p8134
aS'19398299'
p8135
aS'16672231'
p8136
aS'15465770'
p8137
aS'12514286'
p8138
aS'19004024'
p8139
aS'21884133'
p8140
aS'12600863'
p8141
aS'12810641'
p8142
aS'21715509'
p8143
aS'18156396'
p8144
aS'12436060'
p8145
aS'14988465'
p8146
aS'11756071'
p8147
aS'16365067'
p8148
aS'17205520'
p8149
aS'16841329'
p8150
aS'11896582'
p8151
aS'21665318'
p8152
aS'15514258'
p8153
aS'19003733'
p8154
aS'17278094'
p8155
aS'16030280'
p8156
aS'19369372'
p8157
aS'18567756'
p8158
aS'14747683'
p8159
aS'12885706'
p8160
aS'16988152'
p8161
aS'12888659'
p8162
aS'21081106'
p8163
aS'15051608'
p8164
aS'18280136'
p8165
atp8166
Rp8167
ag1
((lp8168
tp8169
Rp8170
ag1
((lp8171
tp8172
Rp8173
ag1
((lp8174
tp8175
Rp8176
ag1
((lp8177
tp8178
Rp8179
ag1
((lp8180
tp8181
Rp8182
ag1
((lp8183
tp8184
Rp8185
ag1
((lp8186
tp8187
Rp8188
ag1
((lp8189
tp8190
Rp8191
ag1
((lp8192
tp8193
Rp8194
a.